BL51 BANKED LINKER/LOCATER V6.22                                                        07/26/2018  17:42:19  PAGE 1


BL51 BANKED LINKER/LOCATER V6.22, INVOKED BY:
E:\KEIL_V5\C51\BIN\BL51.EXE .\Output\STARTUP.obj, .\Output\uart.obj, .\Output\config.obj, .\Output\ds1302.obj, .\Output\
>> delay.obj, .\Output\FD612Drv_double.obj, .\Output\FD612Drv_demo.obj, .\Output\FD616.obj, .\Output\main.obj, .\Output\
>> usr.obj TO .\Output\pro PRINT (.\list\pro.m51) RAMSIZE (256)


MEMORY MODEL: LARGE WITH FLOATING POINT ARITHMETIC


INPUT MODULES INCLUDED:
  .\Output\STARTUP.obj (?C_STARTUP)
  .\Output\uart.obj (UART)
  .\Output\config.obj (CONFIG)
  .\Output\ds1302.obj (DS1302)
  .\Output\delay.obj (DELAY)
  .\Output\FD612Drv_double.obj (FD612DRV_DOUBLE)
  .\Output\FD612Drv_demo.obj (FD612DRV_DEMO)
  .\Output\FD616.obj (FD616)
  .\Output\main.obj (MAIN)
  .\Output\usr.obj (USR)
  E:\KEIL_V5\C51\LIB\C51FPL.LIB (?C?FPADD)
  E:\KEIL_V5\C51\LIB\C51FPL.LIB (?C?FPMUL)
  E:\KEIL_V5\C51\LIB\C51FPL.LIB (?C?FPDIV)
  E:\KEIL_V5\C51\LIB\C51FPL.LIB (?C?FCAST)
  E:\KEIL_V5\C51\LIB\C51FPL.LIB (?C?CASTF)
  E:\KEIL_V5\C51\LIB\C51FPL.LIB (LOG)
  E:\KEIL_V5\C51\LIB\C51FPL.LIB (VSPRINTF)
  E:\KEIL_V5\C51\LIB\C51FPL.LIB (?C?FPGETOPN)
  E:\KEIL_V5\C51\LIB\C51FPL.LIB (PRINTF)
  E:\KEIL_V5\C51\LIB\C51FPL.LIB (?C?FPSERIES)
  E:\KEIL_V5\C51\LIB\C51FPL.LIB (?C?FPROUND)
  E:\KEIL_V5\C51\LIB\C51FPL.LIB (?C?FPCONVERT)
  E:\KEIL_V5\C51\LIB\C51FPL.LIB (?C?FTNPWR)
  E:\KEIL_V5\C51\LIB\C51L.LIB (?C_INIT)
  E:\KEIL_V5\C51\LIB\C51L.LIB (?C?CLDPTR)
  E:\KEIL_V5\C51\LIB\C51L.LIB (?C?CLDOPTR)
  E:\KEIL_V5\C51\LIB\C51L.LIB (?C?CILDPTR)
  E:\KEIL_V5\C51\LIB\C51L.LIB (?C?CILDOPTR)
  E:\KEIL_V5\C51\LIB\C51L.LIB (?C?CSTPTR)
  E:\KEIL_V5\C51\LIB\C51L.LIB (?C?CSTOPTR)
  E:\KEIL_V5\C51\LIB\C51L.LIB (?C?UIDIV)
  E:\KEIL_V5\C51\LIB\C51L.LIB (?C?ILDIX)
  E:\KEIL_V5\C51\LIB\C51L.LIB (?C?LMUL)
  E:\KEIL_V5\C51\LIB\C51L.LIB (?C?ULDIV)
  E:\KEIL_V5\C51\LIB\C51L.LIB (?C?LNEG)
  E:\KEIL_V5\C51\LIB\C51L.LIB (?C?ULCMP)
  E:\KEIL_V5\C51\LIB\C51L.LIB (?C?LLDCODE)
  E:\KEIL_V5\C51\LIB\C51L.LIB (?C?LLDXDATA0)
  E:\KEIL_V5\C51\LIB\C51L.LIB (?C?LLDCODE0)
  E:\KEIL_V5\C51\LIB\C51L.LIB (?C?LSTXDATA)
  E:\KEIL_V5\C51\LIB\C51L.LIB (?C?LSTKXDATA)
  E:\KEIL_V5\C51\LIB\C51L.LIB (?C?OFFXADD)
  E:\KEIL_V5\C51\LIB\C51L.LIB (?C?PLDIXDATA)
  E:\KEIL_V5\C51\LIB\C51L.LIB (?C?PSTXDATA)
  E:\KEIL_V5\C51\LIB\C51L.LIB (?C?PLDPTR)
  E:\KEIL_V5\C51\LIB\C51L.LIB (?C?PLDOPTR)
  E:\KEIL_V5\C51\LIB\C51L.LIB (?C?CCASE)
  E:\KEIL_V5\C51\LIB\C51L.LIB (?C?ICALL)
BL51 BANKED LINKER/LOCATER V6.22                                                      07/26/2018  17:42:19  PAGE 2


  E:\KEIL_V5\C51\LIB\C51L.LIB (PUTCHAR)
  E:\KEIL_V5\C51\LIB\C51L.LIB (?C?PLDIDATA)
  E:\KEIL_V5\C51\LIB\C51L.LIB (?C?PLDXDATA)
  E:\KEIL_V5\C51\LIB\C51L.LIB (?C?PLDPDATA)
  E:\KEIL_V5\C51\LIB\C51L.LIB (?C?PLDCODE)


LINK MAP OF MODULE:  .\Output\pro (?C_STARTUP)


            TYPE    BASE      LENGTH    RELOCATION   SEGMENT NAME
            -----------------------------------------------------

            * * * * * * *   D A T A   M E M O R Y   * * * * * * *
            REG     0000H     0008H     ABSOLUTE     "REG BANK 0"
            DATA    0008H     0005H     UNIT         _DATA_GROUP_
                    000DH     0013H                  *** GAP ***
            BIT     0020H.0   0001H.6   UNIT         ?BI?USR
            BIT     0021H.6   0001H.1   UNIT         _BIT_GROUP_
            BIT     0022H.7   0000H.1   UNIT         ?BI?UART
            IDATA   0023H     0001H     UNIT         ?STACK

            * * * * * * *  X D A T A   M E M O R Y  * * * * * * *
            XDATA   0000H     0164H     UNIT         _XDATA_GROUP_
            XDATA   0164H     00D0H     UNIT         ?XD?FD612DRV_DOUBLE
            XDATA   0234H     007CH     UNIT         ?XD?UART
            XDATA   02B0H     0054H     UNIT         ?XD?USR
            XDATA   0304H     004CH     UNIT         ?XD?FD612DRV_DEMO
            XDATA   0350H     0012H     UNIT         ?XD?FD616
                    0362H     7C9EH                  *** GAP ***
            XDATA   8000H     0001H     ABSOLUTE     
            XDATA   8001H     0001H     ABSOLUTE     
            XDATA   8002H     0001H     ABSOLUTE     
            XDATA   8003H     0001H     ABSOLUTE     
            XDATA   8004H     0001H     ABSOLUTE     
            XDATA   8005H     0001H     ABSOLUTE     
            XDATA   8006H     0001H     ABSOLUTE     
            XDATA   8007H     0001H     ABSOLUTE     
            XDATA   8008H     0001H     ABSOLUTE     
            XDATA   8009H     0001H     ABSOLUTE     
            XDATA   800AH     0001H     ABSOLUTE     
            XDATA   800BH     0001H     ABSOLUTE     
            XDATA   800CH     0001H     ABSOLUTE     
            XDATA   800DH     0001H     ABSOLUTE     
            XDATA   800EH     0001H     ABSOLUTE     
            XDATA   800FH     0001H     ABSOLUTE     
            XDATA   8010H     0001H     ABSOLUTE     
            XDATA   8011H     0001H     ABSOLUTE     
                    8012H     0006H                  *** GAP ***
            XDATA   8018H     0001H     ABSOLUTE     
            XDATA   8019H     0001H     ABSOLUTE     
            XDATA   801AH     0001H     ABSOLUTE     
            XDATA   801BH     0001H     ABSOLUTE     
            XDATA   801CH     0001H     ABSOLUTE     
            XDATA   801DH     0001H     ABSOLUTE     
            XDATA   801EH     0001H     ABSOLUTE     
            XDATA   801FH     0001H     ABSOLUTE     
BL51 BANKED LINKER/LOCATER V6.22                                                      07/26/2018  17:42:19  PAGE 3


            XDATA   8020H     0001H     ABSOLUTE     
            XDATA   8021H     0001H     ABSOLUTE     
                    8022H     00DEH                  *** GAP ***
            XDATA   8100H     0001H     ABSOLUTE     
            XDATA   8101H     0001H     ABSOLUTE     
                    8102H     7AFEH                  *** GAP ***
            XDATA   FC00H     0001H     ABSOLUTE     
            XDATA   FC01H     0001H     ABSOLUTE     
            XDATA   FC02H     0001H     ABSOLUTE     
            XDATA   FC03H     0001H     ABSOLUTE     
            XDATA   FC04H     0001H     ABSOLUTE     
            XDATA   FC05H     0001H     ABSOLUTE     
            XDATA   FC06H     0001H     ABSOLUTE     

            * * * * * * *   C O D E   M E M O R Y   * * * * * * *
            CODE    0000H     0003H     ABSOLUTE     
            CODE    0003H     0007H     UNIT         ?PR?RESETDS1302?DS1302
                    000AH     0001H                  *** GAP ***
            CODE    000BH     0003H     ABSOLUTE     
            CODE    000EH     0015H     UNIT         ?PR?_WRITE_ADDR_BYTE_DS1302?DS1302
            CODE    0023H     0003H     ABSOLUTE     
            CODE    0026H     0042H     UNIT         ?PR?GPIO_INIT?CONFIG
            CODE    0068H     0003H     UNIT         ?PR?FD612_BASE_SCL_SET?FD612DRV_DEMO
            CODE    006BH     0003H     ABSOLUTE     
            CODE    006EH     090AH     UNIT         ?C?LIB_CODE
            CODE    0978H     048AH     UNIT         ?PR?KEY_STATUE?USR
            CODE    0E02H     0483H     UNIT         ?PR?PRINTF?PRINTF
            CODE    1285H     03B4H     UNIT         ?PR?DE_WEEK?USR
            CODE    1639H     0328H     UNIT         ?PR?DISPLAY?USR
            CODE    1961H     0299H     UNIT         ?PR?DISPLAY_ALL?USR
            CODE    1BFAH     024BH     UNIT         ?PR?DISPLAY_INIT?USR
            CODE    1E45H     018AH     UNIT         ?C_INITSEG
            CODE    1FCFH     017DH     UNIT         ?PR?_ALARM_HOUR_UP_DOWN?USR
            CODE    214CH     014CH     UNIT         ?PR?_ALARM_SLEEP_JUDGE?USR
            CODE    2298H     0131H     UNIT         ?PR?SD_MODE?USR
            CODE    23C9H     012DH     UNIT         ?PR?ADC_CONVERT?USR
            CODE    24F6H     0129H     UNIT         ?PR?LOG?LOG
            CODE    261FH     0118H     UNIT         ?PR?_ALARM_ON_OFF_SET?USR
            CODE    2737H     0106H     UNIT         ?PR?_ALARM_MIN_UP_DOWN?USR
            CODE    283DH     0103H     UNIT         ?PR?_SET_TIME_MON_BLINK?USR
            CODE    2940H     0103H     UNIT         ?PR?MDAY_OVER_JUDGE?USR
            CODE    2A43H     00FDH     UNIT         ?PR?BRIGHT_CONTRL?USR
            CODE    2B40H     00F8H     UNIT         ?PR?_ALARM_HOUR_BLINK?USR
            CODE    2C38H     00F3H     UNIT         ?PR?_ALARM_MIN_BLINK?USR
            CODE    2D2BH     00F0H     UNIT         ?PR?_SET_TIME_DAY_BLINK?USR
            CODE    2E1BH     00EDH     UNIT         ?PR?_FD612_WRBYTE?FD612DRV_DOUBLE
            CODE    2F08H     00EAH     UNIT         ?PR?_FD612_POTIVETNAGE?FD612DRV_DOUBLE
            CODE    2FF2H     00E8H     UNIT         ?PR?_HOUR_LONG_UP_DOWN?USR
            CODE    30DAH     00CBH     UNIT         ?PR?_WEEK_DISPLAY?USR
            CODE    31A5H     00CAH     UNIT         ?PR?_YEAR_LONG_UP_DOWN?USR
            CODE    326FH     00CAH     UNIT         ?PR?INITDS1302?USR
            CODE    3339H     00CAH     UNIT         ?PR?_HOUR_CHAGE_INPUT?USR
            CODE    3403H     00C9H     UNIT         ?PR?_MON_LONG_UP_DOWN?USR
            CODE    34CCH     00C4H     UNIT         ?PR?_SET_TIME_HOUR_BLINK?USR
            CODE    3590H     00C4H     UNIT         ?PR?_SET_TIME_MINUTE_BLINK?USR
            CODE    3654H     00BFH     UNIT         ?PR?_SET_TIME_YEAR_BLINK?USR
            CODE    3713H     00B5H     UNIT         ?PR?VOICE_CONTROL?USR
BL51 BANKED LINKER/LOCATER V6.22                                                      07/26/2018  17:42:19  PAGE 4


            CODE    37C8H     00B2H     UNIT         ?PR?HOUR_MIN_DISPLAY?USR
            CODE    387AH     00B1H     UNIT         ?PR?FD612_APP_INIT?FD612DRV_DEMO
            CODE    392BH     00ABH     UNIT         ?PR?_MIN_LONG_UP_DOWN?USR
            CODE    39D6H     00A9H     UNIT         ?PR?_MDAY_LONG_UP_DOWN?USR
            CODE    3A7FH     00A8H     UNIT         ?PR?_HOUR_OVER_JUDGE?USR
            CODE    3B27H     00A4H     UNIT         ?PR?KEY_DISPLAY_UP_DOWN?USR
            CODE    3BCBH     008CH     UNIT         ?C_C51STARTUP
            CODE    3C57H     008CH     UNIT         ?PR?RTC_ISR?USR
            CODE    3CE3H     0085H     UNIT         ?PR?FROM_DS1302_READ_TIME_DATA?USR
            CODE    3D68H     0082H     UNIT         ?PR?_FD612_START?FD612DRV_DOUBLE
            CODE    3DEAH     007EH     UNIT         ?PR?_FD612_DISPDATAREFRESH?FD612DRV_DOUBLE
            CODE    3E68H     0078H     UNIT         ?PR?_DISPLAY_12_24_BLINK?USR
            CODE    3EE0H     006FH     UNIT         ?PR?_ANODE_DISPLAY?FD616
            CODE    3F4FH     006EH     UNIT         ?PR?_FD612_BASE_REFRESH?FD612DRV_DOUBLE
            CODE    3FBDH     006CH     UNIT         ?PR?DS1302_INIT?CONFIG
            CODE    4029H     006CH     UNIT         ?PR?_FD612_STOP?FD612DRV_DOUBLE
            CODE    4095H     006AH     UNIT         ?PR?UART0_ISR?UART
            CODE    40FFH     006AH     UNIT         ?PR?_FD612_INIT?FD612DRV_DOUBLE
            CODE    4169H     0069H     UNIT         ?PR?_UART0_PUTCHAR?UART
            CODE    41D2H     0065H     UNIT         ?PR?_UART0_INITIAL?UART
            CODE    4237H     0064H     UNIT         ?PR?MON_OVER_JUDGE?USR
            CODE    429BH     005DH     UNIT         ?PR?_ALARM_HOUR_SET?USR
            CODE    42F8H     005CH     UNIT         ?PR?_ALARM_MIN_SET?USR
            CODE    4354H     0056H     UNIT         ?PR?MAIN?MAIN
            CODE    43AAH     0055H     UNIT         ?PR?_UART_PRINTF?UART
            CODE    43FFH     004AH     UNIT         ?PR?_VSPRINTF?VSPRINTF
            CODE    4449H     0041H     UNIT         ?PR?AFTER_ARRIVE_WRITE_1302?USR
            CODE    448AH     0041H     UNIT         ?PR?POWER_DETECT?USR
            CODE    44CBH     003DH     UNIT         ?PR?_MIN_OVER_JUDGE?USR
            CODE    4508H     003AH     UNIT         ?PR?_FD616_WRITEBYTE?FD616
            CODE    4542H     0034H     UNIT         ?PR?_ALARM_24SWITCH12?USR
            CODE    4576H     0033H     UNIT         ?PR?_UARTPUTSTR?UART
            CODE    45A9H     0032H     UNIT         ?PR?_FD612_COMMAND?FD612DRV_DOUBLE
            CODE    45DBH     0030H     UNIT         ?PR?READBYTEDS1302?DS1302
            CODE    460BH     002EH     UNIT         ?PR?ALARM_DISPLAY?USR
            CODE    4639H     002AH     UNIT         ?PR?ALARM_TIME_INIT?USR
            CODE    4663H     0029H     UNIT         ?PR?FD616_DISPDATAREFRESH?FD616
            CODE    468CH     0028H     UNIT         ?PR?_LEEP_YEAR?USR
            CODE    46B4H     0027H     UNIT         ?PR?DISPLAY_INIT_FIRST?CONFIG
            CODE    46DBH     0027H     UNIT         ?PR?PUTCHAR?PUTCHAR
            CODE    4702H     0026H     UNIT         ?PR?_ALARM_12SWITCH24?USR
            CODE    4728H     0023H     UNIT         ?PR?_WRITEBYTEDS1302?DS1302
            CODE    474BH     0023H     UNIT         ?PR?_BCD_DECIMAL?USR
            CODE    476EH     0020H     UNIT         ?PR?_KEY_OFF_ALARM_CLOCK?USR
            CODE    478EH     001DH     UNIT         ?PR?FD628_DELAY10US?FD612DRV_DOUBLE
            CODE    47ABH     001DH     UNIT         ?PR?KEY_INTO_INIT?USR
            CODE    47C8H     001CH     UNIT         ?PR?FD616_INIT?FD616
            CODE    47E4H     0019H     UNIT         ?PR?FD616_START?FD616
            CODE    47FDH     0019H     UNIT         ?PR?FD616_STOP?FD616
            CODE    4816H     0018H     UNIT         ?PR?ADC_INIT?CONFIG
            CODE    482EH     0018H     UNIT         ?PR?_FD616_COMMAND?FD616
            CODE    4846H     0016H     UNIT         ?PR?_DELAY_50US?DELAY
            CODE    485CH     0012H     UNIT         ?PR?_DELAY_MS?DELAY
            CODE    486EH     0011H     UNIT         ?PR?TIMER0_INIT?CONFIG
            CODE    487FH     0011H     UNIT         ?PR?_DECIMAL_BCD?USR
            CODE    4890H     000FH     UNIT         ?PR?RTC_INIT?CONFIG
            CODE    489FH     000DH     UNIT         ?PR?DS1302_W_ON?DS1302
BL51 BANKED LINKER/LOCATER V6.22                                                      07/26/2018  17:42:19  PAGE 5


            CODE    48ACH     000DH     UNIT         ?PR?DS1302_W_OFF?DS1302
            CODE    48B9H     000BH     UNIT         ?PR?FD616_REFRESH?FD616
            CODE    48C4H     000AH     UNIT         ?PR?_READ_ADDR_BYTE_DS1302?DS1302
            CODE    48CEH     0009H     UNIT         ?PR?TIMER0_ISR?USR
            CODE    48D7H     0007H     UNIT         ?PR?FD612_BASE_SCL_D_OUT?FD612DRV_DEMO
            CODE    48DEH     0007H     UNIT         ?PR?FD612_BASE_SDA_D_OUT?FD612DRV_DEMO
            CODE    48E5H     0007H     UNIT         ?PR?FD612_BASE_SDA_D_IN?FD612DRV_DEMO
            CODE    48ECH     0007H     UNIT         ?PR?FD612_BASE_SDA_IN?FD612DRV_DEMO
            CODE    48F3H     0007H     UNIT         ?CO?MAIN
            CODE    48FAH     0006H     UNIT         ?PR?DELAY10US?FD616
            CODE    4900H     0004H     UNIT         ?PR?CFGFSYS?CONFIG
            CODE    4904H     0003H     UNIT         ?PR?FD612_BASE_SCL_CLR?FD612DRV_DEMO
            CODE    4907H     0003H     UNIT         ?PR?FD612_BASE_SDA_SET?FD612DRV_DEMO
            CODE    490AH     0003H     UNIT         ?PR?FD612_BASE_SDA_CLR?FD612DRV_DEMO



OVERLAY MAP OF MODULE:   .\Output\pro (?C_STARTUP)


SEGMENT                                             BIT_GROUP          DATA_GROUP          XDATA_GROUP
  +--> CALLED SEGMENT                            START    LENGTH     START    LENGTH     START    LENGTH
--------------------------------------------------------------------------------------------------------
?C_C51STARTUP                                    -----    -----      -----    -----      -----    -----
  +--> ?PR?MAIN?MAIN
  +--> ?C_INITSEG

?PR?MAIN?MAIN                                    -----    -----      -----    -----      -----    -----
  +--> ?PR?_UART0_INITIAL?UART
  +--> ?CO?MAIN
  +--> ?PR?_UART_PRINTF?UART
  +--> ?PR?CFGFSYS?CONFIG
  +--> ?PR?RTC_INIT?CONFIG
  +--> ?PR?GPIO_INIT?CONFIG
  +--> ?PR?ADC_INIT?CONFIG
  +--> ?PR?ALARM_TIME_INIT?USR
  +--> ?PR?TIMER0_INIT?CONFIG
  +--> ?PR?DS1302_INIT?CONFIG
  +--> ?PR?FD616_INIT?FD616
  +--> ?PR?FD612_APP_INIT?FD612DRV_DEMO
  +--> ?PR?DISPLAY_INIT_FIRST?CONFIG
  +--> ?PR?BRIGHT_CONTRL?USR
  +--> ?PR?KEY_STATUE?USR
  +--> ?PR?DISPLAY?USR
  +--> ?PR?ALARM_DISPLAY?USR
  +--> ?PR?SD_MODE?USR
  +--> ?PR?VOICE_CONTROL?USR
  +--> ?PR?POWER_DETECT?USR

?PR?_UART0_INITIAL?UART                          -----    -----      -----    -----      0000H    0004H

?PR?_UART_PRINTF?UART                            -----    -----      -----    -----      0000H    012EH
  +--> ?PR?_VSPRINTF?VSPRINTF
  +--> ?PR?_UARTPUTSTR?UART

?PR?_VSPRINTF?VSPRINTF                           -----    -----      -----    -----      012EH    0006H
  +--> ?PR?PRINTF?PRINTF
BL51 BANKED LINKER/LOCATER V6.22                                                      07/26/2018  17:42:19  PAGE 6



?PR?PRINTF?PRINTF                                0021H.6  0001H.1    0008H    0005H      0134H    0030H
  +--> ?PR?PUTCHAR?PUTCHAR

?PR?_UARTPUTSTR?UART                             -----    -----      -----    -----      012EH    0003H
  +--> ?PR?_UART0_PUTCHAR?UART

?PR?DS1302_INIT?CONFIG                           -----    -----      -----    -----      0000H    0001H
  +--> ?PR?DS1302_W_ON?DS1302
  +--> ?PR?RESETDS1302?DS1302
  +--> ?PR?_WRITEBYTEDS1302?DS1302
  +--> ?PR?DS1302_W_OFF?DS1302
  +--> ?PR?READBYTEDS1302?DS1302
  +--> ?PR?INITDS1302?USR

?PR?DS1302_W_ON?DS1302                           -----    -----      -----    -----      -----    -----
  +--> ?PR?RESETDS1302?DS1302
  +--> ?PR?_WRITEBYTEDS1302?DS1302

?PR?DS1302_W_OFF?DS1302                          -----    -----      -----    -----      -----    -----
  +--> ?PR?RESETDS1302?DS1302
  +--> ?PR?_WRITEBYTEDS1302?DS1302

?PR?INITDS1302?USR                               -----    -----      -----    -----      0001H    0007H
  +--> ?PR?_DECIMAL_BCD?USR
  +--> ?PR?DS1302_W_ON?DS1302
  +--> ?PR?RESETDS1302?DS1302
  +--> ?PR?_WRITEBYTEDS1302?DS1302
  +--> ?PR?DS1302_W_OFF?DS1302

?PR?FD616_INIT?FD616                             -----    -----      -----    -----      -----    -----
  +--> ?PR?FD616_REFRESH?FD616

?PR?FD616_REFRESH?FD616                          -----    -----      -----    -----      -----    -----
  +--> ?PR?FD616_DISPDATAREFRESH?FD616
  +--> ?PR?_FD616_COMMAND?FD616

?PR?FD616_DISPDATAREFRESH?FD616                  -----    -----      -----    -----      -----    -----
  +--> ?PR?FD616_START?FD616
  +--> ?PR?_FD616_WRITEBYTE?FD616
  +--> ?PR?FD616_STOP?FD616
  +--> ?PR?_FD616_COMMAND?FD616

?PR?FD616_START?FD616                            -----    -----      -----    -----      -----    -----
  +--> ?PR?DELAY10US?FD616

?PR?_FD616_WRITEBYTE?FD616                       -----    -----      -----    -----      -----    -----
  +--> ?PR?DELAY10US?FD616

?PR?FD616_STOP?FD616                             -----    -----      -----    -----      -----    -----
  +--> ?PR?DELAY10US?FD616

?PR?_FD616_COMMAND?FD616                         -----    -----      -----    -----      -----    -----
  +--> ?PR?FD616_START?FD616
  +--> ?PR?_FD616_WRITEBYTE?FD616
  +--> ?PR?FD616_STOP?FD616

BL51 BANKED LINKER/LOCATER V6.22                                                      07/26/2018  17:42:19  PAGE 7


?PR?FD612_APP_INIT?FD612DRV_DEMO                 -----    -----      -----    -----      -----    -----
  +--> ?PR?FD612_BASE_SCL_CLR?FD612DRV_DEMO
  +--> ?PR?FD612_BASE_SCL_D_OUT?FD612DRV_DEMO
  +--> ?PR?FD612_BASE_SCL_SET?FD612DRV_DEMO
  +--> ?PR?FD612_BASE_SDA_CLR?FD612DRV_DEMO
  +--> ?PR?FD612_BASE_SDA_D_IN?FD612DRV_DEMO
  +--> ?PR?FD612_BASE_SDA_D_OUT?FD612DRV_DEMO
  +--> ?PR?FD612_BASE_SDA_IN?FD612DRV_DEMO
  +--> ?PR?FD612_BASE_SDA_SET?FD612DRV_DEMO
  +--> ?PR?_FD612_INIT?FD612DRV_DOUBLE
  +--> ?PR?_FD612_BASE_REFRESH?FD612DRV_DOUBLE

?PR?_FD612_INIT?FD612DRV_DOUBLE                  -----    -----      -----    -----      0000H    0006H
  +--> ?PR?_FD612_COMMAND?FD612DRV_DOUBLE

?PR?_FD612_COMMAND?FD612DRV_DOUBLE               -----    -----      -----    -----      000EH    0004H
  +--> ?PR?_FD612_START?FD612DRV_DOUBLE
  +--> ?PR?_FD612_WRBYTE?FD612DRV_DOUBLE
  +--> ?PR?_FD612_STOP?FD612DRV_DOUBLE

?PR?_FD612_START?FD612DRV_DOUBLE                 -----    -----      -----    -----      0012H    0003H
  +--> ?PR?FD628_DELAY10US?FD612DRV_DOUBLE

?PR?_FD612_WRBYTE?FD612DRV_DOUBLE                -----    -----      -----    -----      0012H    0007H
  +--> ?PR?FD628_DELAY10US?FD612DRV_DOUBLE

?PR?_FD612_STOP?FD612DRV_DOUBLE                  -----    -----      -----    -----      0012H    0003H
  +--> ?PR?FD628_DELAY10US?FD612DRV_DOUBLE

?PR?_FD612_BASE_REFRESH?FD612DRV_DOUBLE          -----    -----      -----    -----      0001H    0006H
  +--> ?PR?_FD612_COMMAND?FD612DRV_DOUBLE
  +--> ?PR?_FD612_DISPDATAREFRESH?FD612DRV_D...

?PR?_FD612_DISPDATAREFRESH?FD612DRV_D...         -----    -----      -----    -----      0007H    0007H
  +--> ?PR?_FD612_COMMAND?FD612DRV_DOUBLE
  +--> ?PR?_FD612_START?FD612DRV_DOUBLE
  +--> ?PR?_FD612_WRBYTE?FD612DRV_DOUBLE
  +--> ?PR?_FD612_STOP?FD612DRV_DOUBLE

?PR?DISPLAY_INIT_FIRST?CONFIG                    -----    -----      -----    -----      -----    -----
  +--> ?PR?RESETDS1302?DS1302
  +--> ?PR?_WRITEBYTEDS1302?DS1302
  +--> ?PR?READBYTEDS1302?DS1302
  +--> ?PR?DISPLAY_INIT?USR
  +--> ?PR?DS1302_W_ON?DS1302
  +--> ?PR?DS1302_W_OFF?DS1302

?PR?DISPLAY_INIT?USR                             -----    -----      -----    -----      0000H    0001H
  +--> ?PR?_DELAY_MS?DELAY
  +--> ?PR?_FD612_POTIVETNAGE?FD612DRV_DOUBLE
  +--> ?PR?_ANODE_DISPLAY?FD616
  +--> ?PR?FD616_REFRESH?FD616
  +--> ?PR?_FD612_BASE_REFRESH?FD612DRV_DOUBLE
  +--> ?PR?_WEEK_DISPLAY?USR

?PR?_DELAY_MS?DELAY                              -----    -----      -----    -----      -----    -----
  +--> ?PR?_DELAY_50US?DELAY
BL51 BANKED LINKER/LOCATER V6.22                                                      07/26/2018  17:42:19  PAGE 8



?PR?_FD612_POTIVETNAGE?FD612DRV_DOUBLE           -----    -----      -----    -----      0001H    0007H

?PR?_ANODE_DISPLAY?FD616                         -----    -----      -----    -----      0013H    0003H

?PR?_WEEK_DISPLAY?USR                            -----    -----      -----    -----      -----    -----
  +--> ?PR?_ANODE_DISPLAY?FD616

?PR?BRIGHT_CONTRL?USR                            -----    -----      -----    -----      0001H    0001H
  +--> ?PR?RESETDS1302?DS1302
  +--> ?PR?_WRITEBYTEDS1302?DS1302
  +--> ?PR?READBYTEDS1302?DS1302
  +--> ?PR?_BCD_DECIMAL?USR
  +--> ?PR?_FD616_COMMAND?FD616
  +--> ?PR?_FD612_COMMAND?FD612DRV_DOUBLE

?PR?KEY_STATUE?USR                               -----    -----      -----    -----      -----    -----
  +--> ?PR?FROM_DS1302_READ_TIME_DATA?USR
  +--> ?PR?KEY_INTO_INIT?USR
  +--> ?PR?FD616_REFRESH?FD616
  +--> ?PR?KEY_DISPLAY_UP_DOWN?USR
  +--> ?PR?_SET_TIME_YEAR_BLINK?USR
  +--> ?PR?DISPLAY_ALL?USR
  +--> ?PR?_YEAR_LONG_UP_DOWN?USR
  +--> ?PR?_MON_LONG_UP_DOWN?USR
  +--> ?PR?_MDAY_LONG_UP_DOWN?USR
  +--> ?PR?_HOUR_LONG_UP_DOWN?USR
  +--> ?PR?_MIN_LONG_UP_DOWN?USR
  +--> ?PR?_ALARM_HOUR_UP_DOWN?USR
  +--> ?PR?_ALARM_MIN_UP_DOWN?USR
  +--> ?PR?_FD612_POTIVETNAGE?FD612DRV_DOUBLE
  +--> ?PR?_FD612_BASE_REFRESH?FD612DRV_DOUBLE
  +--> ?PR?_DELAY_MS?DELAY
  +--> ?PR?INITDS1302?USR
  +--> ?PR?_FD616_COMMAND?FD616
  +--> ?PR?_FD612_COMMAND?FD612DRV_DOUBLE
  +--> ?PR?_KEY_OFF_ALARM_CLOCK?USR

?PR?FROM_DS1302_READ_TIME_DATA?USR               -----    -----      -----    -----      -----    -----
  +--> ?PR?RESETDS1302?DS1302
  +--> ?PR?_WRITEBYTEDS1302?DS1302
  +--> ?PR?READBYTEDS1302?DS1302
  +--> ?PR?_BCD_DECIMAL?USR

?PR?KEY_INTO_INIT?USR                            -----    -----      -----    -----      -----    -----
  +--> ?PR?_DELAY_MS?DELAY

?PR?KEY_DISPLAY_UP_DOWN?USR                      -----    -----      -----    -----      -----    -----
  +--> ?PR?_SET_TIME_YEAR_BLINK?USR
  +--> ?PR?_SET_TIME_MON_BLINK?USR
  +--> ?PR?_SET_TIME_DAY_BLINK?USR
  +--> ?PR?_SET_TIME_HOUR_BLINK?USR
  +--> ?PR?_SET_TIME_MINUTE_BLINK?USR
  +--> ?PR?_ALARM_HOUR_BLINK?USR
  +--> ?PR?_ALARM_MIN_BLINK?USR

?PR?_SET_TIME_YEAR_BLINK?USR                     -----    -----      -----    -----      0000H    0001H
BL51 BANKED LINKER/LOCATER V6.22                                                      07/26/2018  17:42:19  PAGE 9


  +--> ?PR?_FD612_POTIVETNAGE?FD612DRV_DOUBLE
  +--> ?PR?_FD612_BASE_REFRESH?FD612DRV_DOUBLE

?PR?_SET_TIME_MON_BLINK?USR                      -----    -----      -----    -----      0000H    0001H
  +--> ?PR?_FD612_POTIVETNAGE?FD612DRV_DOUBLE
  +--> ?PR?_FD612_BASE_REFRESH?FD612DRV_DOUBLE

?PR?_SET_TIME_DAY_BLINK?USR                      -----    -----      -----    -----      0000H    0001H
  +--> ?PR?_FD612_POTIVETNAGE?FD612DRV_DOUBLE
  +--> ?PR?_FD612_BASE_REFRESH?FD612DRV_DOUBLE

?PR?_SET_TIME_HOUR_BLINK?USR                     -----    -----      -----    -----      0000H    0001H
  +--> ?PR?_ANODE_DISPLAY?FD616
  +--> ?PR?FD616_REFRESH?FD616

?PR?_SET_TIME_MINUTE_BLINK?USR                   -----    -----      -----    -----      0000H    0001H
  +--> ?PR?_ANODE_DISPLAY?FD616
  +--> ?PR?FD616_REFRESH?FD616

?PR?_ALARM_HOUR_BLINK?USR                        -----    -----      -----    -----      0003H    0004H
  +--> ?PR?_ANODE_DISPLAY?FD616
  +--> ?PR?FD616_REFRESH?FD616

?PR?_ALARM_MIN_BLINK?USR                         -----    -----      -----    -----      0003H    0004H
  +--> ?PR?_ANODE_DISPLAY?FD616
  +--> ?PR?FD616_REFRESH?FD616

?PR?DISPLAY_ALL?USR                              -----    -----      -----    -----      -----    -----
  +--> ?PR?HOUR_MIN_DISPLAY?USR
  +--> ?PR?_FD612_POTIVETNAGE?FD612DRV_DOUBLE
  +--> ?PR?_FD612_BASE_REFRESH?FD612DRV_DOUBLE
  +--> ?PR?ADC_CONVERT?USR
  +--> ?PR?DE_WEEK?USR

?PR?HOUR_MIN_DISPLAY?USR                         -----    -----      -----    -----      -----    -----
  +--> ?PR?_ANODE_DISPLAY?FD616
  +--> ?PR?FD616_REFRESH?FD616

?PR?ADC_CONVERT?USR                              -----    -----      -----    -----      0000H    000AH
  +--> ?PR?LOG?LOG

?PR?LOG?LOG                                      0021H.6  0000H.1    -----    -----      000AH    0004H

?PR?DE_WEEK?USR                                  -----    -----      -----    -----      0000H    0013H
  +--> ?PR?RESETDS1302?DS1302
  +--> ?PR?_WRITEBYTEDS1302?DS1302
  +--> ?PR?READBYTEDS1302?DS1302
  +--> ?PR?_BCD_DECIMAL?USR
  +--> ?PR?_LEEP_YEAR?USR
  +--> ?PR?DS1302_W_ON?DS1302
  +--> ?PR?DS1302_W_OFF?DS1302
  +--> ?PR?_WEEK_DISPLAY?USR

?PR?_YEAR_LONG_UP_DOWN?USR                       -----    -----      -----    -----      0000H    0001H
  +--> ?PR?_READ_ADDR_BYTE_DS1302?DS1302
  +--> ?PR?_BCD_DECIMAL?USR
  +--> ?PR?_FD612_POTIVETNAGE?FD612DRV_DOUBLE
BL51 BANKED LINKER/LOCATER V6.22                                                      07/26/2018  17:42:19  PAGE 10


  +--> ?PR?_FD612_BASE_REFRESH?FD612DRV_DOUBLE
  +--> ?PR?_DECIMAL_BCD?USR
  +--> ?PR?_WRITE_ADDR_BYTE_DS1302?DS1302
  +--> ?PR?_DELAY_MS?DELAY

?PR?_READ_ADDR_BYTE_DS1302?DS1302                -----    -----      -----    -----      -----    -----
  +--> ?PR?RESETDS1302?DS1302
  +--> ?PR?_WRITEBYTEDS1302?DS1302
  +--> ?PR?READBYTEDS1302?DS1302

?PR?_WRITE_ADDR_BYTE_DS1302?DS1302               -----    -----      -----    -----      -----    -----
  +--> ?PR?DS1302_W_ON?DS1302
  +--> ?PR?RESETDS1302?DS1302
  +--> ?PR?_WRITEBYTEDS1302?DS1302
  +--> ?PR?DS1302_W_OFF?DS1302

?PR?_MON_LONG_UP_DOWN?USR                        -----    -----      -----    -----      0000H    0001H
  +--> ?PR?_READ_ADDR_BYTE_DS1302?DS1302
  +--> ?PR?_BCD_DECIMAL?USR
  +--> ?PR?MON_OVER_JUDGE?USR
  +--> ?PR?_FD612_POTIVETNAGE?FD612DRV_DOUBLE
  +--> ?PR?_FD612_BASE_REFRESH?FD612DRV_DOUBLE
  +--> ?PR?_DECIMAL_BCD?USR
  +--> ?PR?_WRITE_ADDR_BYTE_DS1302?DS1302
  +--> ?PR?_DELAY_MS?DELAY

?PR?MON_OVER_JUDGE?USR                           -----    -----      -----    -----      -----    -----
  +--> ?PR?_DECIMAL_BCD?USR
  +--> ?PR?_WRITE_ADDR_BYTE_DS1302?DS1302

?PR?_MDAY_LONG_UP_DOWN?USR                       -----    -----      -----    -----      0000H    0001H
  +--> ?PR?_READ_ADDR_BYTE_DS1302?DS1302
  +--> ?PR?_BCD_DECIMAL?USR
  +--> ?PR?MDAY_OVER_JUDGE?USR
  +--> ?PR?_FD612_POTIVETNAGE?FD612DRV_DOUBLE
  +--> ?PR?_FD612_BASE_REFRESH?FD612DRV_DOUBLE
  +--> ?PR?_DECIMAL_BCD?USR
  +--> ?PR?_WRITE_ADDR_BYTE_DS1302?DS1302
  +--> ?PR?_DELAY_MS?DELAY

?PR?MDAY_OVER_JUDGE?USR                          -----    -----      -----    -----      -----    -----
  +--> ?PR?_LEEP_YEAR?USR

?PR?_HOUR_LONG_UP_DOWN?USR                       -----    -----      -----    -----      0000H    0001H
  +--> ?PR?_READ_ADDR_BYTE_DS1302?DS1302
  +--> ?PR?_BCD_DECIMAL?USR
  +--> ?PR?_HOUR_OVER_JUDGE?USR
  +--> ?PR?_ANODE_DISPLAY?FD616
  +--> ?PR?FD616_REFRESH?FD616
  +--> ?PR?BRIGHT_CONTRL?USR
  +--> ?PR?_DELAY_MS?DELAY

?PR?_HOUR_OVER_JUDGE?USR                         -----    -----      -----    -----      0001H    0001H
  +--> ?PR?AFTER_ARRIVE_WRITE_1302?USR
  +--> ?PR?_DECIMAL_BCD?USR
  +--> ?PR?_WRITE_ADDR_BYTE_DS1302?DS1302

BL51 BANKED LINKER/LOCATER V6.22                                                      07/26/2018  17:42:19  PAGE 11


?PR?AFTER_ARRIVE_WRITE_1302?USR                  -----    -----      -----    -----      -----    -----
  +--> ?PR?RESETDS1302?DS1302
  +--> ?PR?_WRITEBYTEDS1302?DS1302
  +--> ?PR?READBYTEDS1302?DS1302
  +--> ?PR?DS1302_W_ON?DS1302
  +--> ?PR?DS1302_W_OFF?DS1302

?PR?_MIN_LONG_UP_DOWN?USR                        -----    -----      -----    -----      0000H    0001H
  +--> ?PR?_READ_ADDR_BYTE_DS1302?DS1302
  +--> ?PR?_BCD_DECIMAL?USR
  +--> ?PR?_MIN_OVER_JUDGE?USR
  +--> ?PR?_ANODE_DISPLAY?FD616
  +--> ?PR?FD616_REFRESH?FD616
  +--> ?PR?_DELAY_MS?DELAY

?PR?_MIN_OVER_JUDGE?USR                          -----    -----      -----    -----      -----    -----
  +--> ?PR?_WRITE_ADDR_BYTE_DS1302?DS1302
  +--> ?PR?_DECIMAL_BCD?USR

?PR?_ALARM_HOUR_UP_DOWN?USR                      -----    -----      -----    -----      0003H    0003H
  +--> ?PR?_ANODE_DISPLAY?FD616
  +--> ?PR?FD616_REFRESH?FD616
  +--> ?PR?_DELAY_MS?DELAY

?PR?_ALARM_MIN_UP_DOWN?USR                       -----    -----      -----    -----      0003H    0003H
  +--> ?PR?_ANODE_DISPLAY?FD616
  +--> ?PR?FD616_REFRESH?FD616
  +--> ?PR?_DELAY_MS?DELAY

?PR?DISPLAY?USR                                  -----    -----      -----    -----      -----    -----
  +--> ?PR?FROM_DS1302_READ_TIME_DATA?USR
  +--> ?PR?DISPLAY_ALL?USR
  +--> ?PR?_SET_TIME_YEAR_BLINK?USR
  +--> ?PR?_DECIMAL_BCD?USR
  +--> ?PR?_SET_TIME_MON_BLINK?USR
  +--> ?PR?MON_OVER_JUDGE?USR
  +--> ?PR?_SET_TIME_DAY_BLINK?USR
  +--> ?PR?MDAY_OVER_JUDGE?USR
  +--> ?PR?_WRITE_ADDR_BYTE_DS1302?DS1302
  +--> ?PR?_READ_ADDR_BYTE_DS1302?DS1302
  +--> ?PR?_BCD_DECIMAL?USR
  +--> ?PR?_DISPLAY_12_24_BLINK?USR
  +--> ?PR?_HOUR_CHAGE_INPUT?USR
  +--> ?PR?_ALARM_12SWITCH24?USR
  +--> ?PR?_ALARM_24SWITCH12?USR
  +--> ?PR?_SET_TIME_HOUR_BLINK?USR
  +--> ?PR?_HOUR_OVER_JUDGE?USR
  +--> ?PR?_SET_TIME_MINUTE_BLINK?USR
  +--> ?PR?_MIN_OVER_JUDGE?USR
  +--> ?PR?_ALARM_ON_OFF_SET?USR
  +--> ?PR?_ALARM_HOUR_SET?USR
  +--> ?PR?_ALARM_MIN_SET?USR

?PR?_DISPLAY_12_24_BLINK?USR                     -----    -----      -----    -----      0000H    0001H
  +--> ?PR?_ANODE_DISPLAY?FD616
  +--> ?PR?FD616_REFRESH?FD616

BL51 BANKED LINKER/LOCATER V6.22                                                      07/26/2018  17:42:19  PAGE 12


?PR?_HOUR_CHAGE_INPUT?USR                        -----    -----      -----    -----      0000H    0002H
  +--> ?PR?RESETDS1302?DS1302
  +--> ?PR?_WRITEBYTEDS1302?DS1302
  +--> ?PR?READBYTEDS1302?DS1302
  +--> ?PR?_BCD_DECIMAL?USR
  +--> ?PR?_DECIMAL_BCD?USR
  +--> ?PR?DS1302_W_ON?DS1302
  +--> ?PR?DS1302_W_OFF?DS1302

?PR?_ALARM_ON_OFF_SET?USR                        -----    -----      -----    -----      0000H    0004H
  +--> ?PR?_ANODE_DISPLAY?FD616
  +--> ?PR?FD616_REFRESH?FD616

?PR?_ALARM_HOUR_SET?USR                          -----    -----      -----    -----      0000H    0003H
  +--> ?PR?_ALARM_HOUR_BLINK?USR
  +--> ?PR?_ALARM_HOUR_UP_DOWN?USR

?PR?_ALARM_MIN_SET?USR                           -----    -----      -----    -----      0000H    0003H
  +--> ?PR?_ALARM_MIN_BLINK?USR
  +--> ?PR?_ALARM_MIN_UP_DOWN?USR

?PR?ALARM_DISPLAY?USR                            -----    -----      -----    -----      -----    -----
  +--> ?PR?_ALARM_SLEEP_JUDGE?USR

?PR?_ALARM_SLEEP_JUDGE?USR                       -----    -----      -----    -----      0000H    0003H

?PR?SD_MODE?USR                                  -----    -----      -----    -----      -----    -----
  +--> ?PR?_FD612_POTIVETNAGE?FD612DRV_DOUBLE
  +--> ?PR?_FD612_BASE_REFRESH?FD612DRV_DOUBLE
  +--> ?PR?VOICE_CONTROL?USR

?PR?VOICE_CONTROL?USR                            -----    -----      -----    -----      -----    -----
  +--> ?PR?BRIGHT_CONTRL?USR
  +--> ?PR?_FD616_COMMAND?FD616
  +--> ?PR?_FD612_COMMAND?FD612DRV_DOUBLE
  +--> ?PR?_DELAY_MS?DELAY



SYMBOL TABLE OF MODULE:  .\Output\pro (?C_STARTUP)

  VALUE           TYPE          NAME
  ----------------------------------

  -------         MODULE        ?C_STARTUP
  C:3BCBH         SEGMENT       ?C_C51STARTUP
  I:0023H         SEGMENT       ?STACK
  C:0000H         PUBLIC        ?C_STARTUP
  D:00E0H         SYMBOL        ACC
  D:00F0H         SYMBOL        B
  D:0083H         SYMBOL        DPH
  D:0082H         SYMBOL        DPL
  N:0000H         SYMBOL        IBPSTACK
  N:0100H         SYMBOL        IBPSTACKTOP
  N:0080H         SYMBOL        IDATALEN
  C:3BCEH         SYMBOL        IDATALOOP
  N:0000H         SYMBOL        PBPSTACK
BL51 BANKED LINKER/LOCATER V6.22                                                      07/26/2018  17:42:19  PAGE 13


  N:0100H         SYMBOL        PBPSTACKTOP
  N:0000H         SYMBOL        PDATALEN
  N:0000H         SYMBOL        PDATASTART
  N:0000H         SYMBOL        PPAGE
  N:0000H         SYMBOL        PPAGEENABLE
  D:00A0H         SYMBOL        PPAGE_SFR
  D:0081H         SYMBOL        SP
  C:3BCBH         SYMBOL        STARTUP1
  N:0000H         SYMBOL        XBPSTACK
  N:0000H         SYMBOL        XBPSTACKTOP
  N:0000H         SYMBOL        XDATALEN
  N:0000H         SYMBOL        XDATASTART
  C:0000H         LINE#         126
  C:3BCBH         LINE#         133
  C:3BCDH         LINE#         134
  C:3BCEH         LINE#         135
  C:3BCFH         LINE#         136
  C:3BD1H         LINE#         185
  C:3BD4H         LINE#         196
  -------         ENDMOD        ?C_STARTUP

  -------         MODULE        UART
  C:0000H         SYMBOL        _ICE_DUMMY_
  D:0080H         PUBLIC        P0
  D:0090H         PUBLIC        P1
  D:00A0H         PUBLIC        P2
  D:00B0H         PUBLIC        P3
  D:00CBH         PUBLIC        T2CH
  C:4576H         PUBLIC        _UartPutStr
  D:00CAH         PUBLIC        T2CL
  X:0234H         PUBLIC        uart0_rev
  C:43AAH         PUBLIC        _uart_printf
  B:0022H.7       PUBLIC        uart0_tx_flag
  C:4095H         PUBLIC        UART0_ISR
  B:00A8H.4       PUBLIC        ES0
  B:0098H.0       PUBLIC        RI0
  B:0098H.1       PUBLIC        TI0
  D:00CDH         PUBLIC        TH2
  D:00CCH         PUBLIC        TL2
  B:00C8H.6       PUBLIC        TR2
  X:0236H         PUBLIC        uart0_rx_buf
  X:029AH         PUBLIC        uart0_tx_buf
  D:0099H         PUBLIC        S0BUF
  D:0098H         PUBLIC        S0CON
  D:00C8H         PUBLIC        T2CON
  C:4169H         PUBLIC        _Uart0_PutChar
  X:02AEH         PUBLIC        uart0_send
  C:41D2H         PUBLIC        _Uart0_Initial
  -------         PROC          _UART0_INITIAL
  X:0000H         SYMBOL        baudrate
  -------         DO            
  D:0004H         SYMBOL        value_temp
  -------         ENDDO         
  C:41D2H         LINE#         24
  C:41D8H         LINE#         25
  C:41D8H         LINE#         28
  C:41DEH         LINE#         29
BL51 BANKED LINKER/LOCATER V6.22                                                      07/26/2018  17:42:19  PAGE 14


  C:41E2H         LINE#         31
  C:41E7H         LINE#         32
  C:41E9H         LINE#         33
  C:41EDH         LINE#         34
  C:41EFH         LINE#         35
  C:41F1H         LINE#         39
  C:4222H         LINE#         40
  C:4225H         LINE#         41
  C:4227H         LINE#         42
  C:422BH         LINE#         43
  C:422DH         LINE#         44
  C:422FH         LINE#         45
  C:4231H         LINE#         61
  C:4234H         LINE#         62
  C:4236H         LINE#         63
  -------         ENDPROC       _UART0_INITIAL
  -------         PROC          _UART0_PUTCHAR
  D:0007H         SYMBOL        bdat
  -------         DO            
  D:0006H         SYMBOL        free_space
  D:0005H         SYMBOL        tail_tmp
  -------         ENDDO         
  C:4169H         LINE#         64
  C:4169H         LINE#         65
  C:4169H         LINE#         68
  C:4169H         LINE#         69
  C:4169H         LINE#         70
  C:416EH         LINE#         71
  C:4177H         LINE#         72
  C:4177H         LINE#         73
  C:417BH         LINE#         74
  C:417DH         LINE#         76
  C:417DH         LINE#         77
  C:418AH         LINE#         78
  C:418AH         LINE#         79
  C:4190H         LINE#         80
  C:4190H         LINE#         81
  C:4192H         LINE#         82
  C:4198H         LINE#         83
  C:41A0H         LINE#         84
  C:41ACH         LINE#         85
  C:41AFH         LINE#         86
  C:41AFH         LINE#         87
  C:41B1H         LINE#         88
  C:41B7H         LINE#         89
  C:41BFH         LINE#         90
  C:41CCH         LINE#         91
  C:41CEH         LINE#         92
  C:41CFH         LINE#         94
  C:41CFH         LINE#         95
  C:41D1H         LINE#         96
  C:41D1H         LINE#         97
  C:41D1H         LINE#         98
  C:41D1H         LINE#         99
  C:41D1H         LINE#         100
  -------         ENDPROC       _UART0_PUTCHAR
  -------         PROC          UART0_ISR
BL51 BANKED LINKER/LOCATER V6.22                                                      07/26/2018  17:42:19  PAGE 15


  C:4095H         LINE#         101
  C:40A4H         LINE#         103
  C:40A7H         LINE#         104
  C:40A7H         LINE#         105
  C:40A9H         LINE#         106
  C:40AFH         LINE#         107
  C:40B7H         LINE#         108
  C:40C4H         LINE#         109
  C:40C4H         LINE#         110
  C:40C7H         LINE#         111
  C:40C7H         LINE#         112
  C:40C9H         LINE#         113
  C:40D5H         LINE#         114
  C:40D5H         LINE#         115
  C:40D9H         LINE#         116
  C:40E1H         LINE#         117
  C:40EEH         LINE#         118
  C:40F0H         LINE#         120
  C:40F0H         LINE#         121
  C:40F2H         LINE#         122
  C:40F2H         LINE#         123
  C:40F2H         LINE#         124
  -------         ENDPROC       UART0_ISR
  -------         PROC          _UARTPUTSTR
  X:012EH         SYMBOL        str
  C:4576H         LINE#         307
  C:4581H         LINE#         308
  C:4581H         LINE#         309
  C:4591H         LINE#         310
  C:4591H         LINE#         311
  C:45A6H         LINE#         312
  C:45A8H         LINE#         313
  -------         ENDPROC       _UARTPUTSTR
  -------         PROC          _UART_PRINTF
  X:0000H         SYMBOL        fmt
  -------         DO            
  X:0003H         SYMBOL        ellipsis_40
  X:002BH         SYMBOL        ap
  X:002EH         SYMBOL        string
  -------         ENDDO         
  C:43AAH         LINE#         314
  C:43B5H         LINE#         315
  C:43B5H         LINE#         318
  C:43C3H         LINE#         319
  C:43F6H         LINE#         320
  -------         ENDPROC       _UART_PRINTF
  -------         ENDMOD        UART

  -------         MODULE        CONFIG
  C:0000H         SYMBOL        _ICE_DUMMY_
  D:0080H         PUBLIC        P0
  C:4890H         PUBLIC        RTC_init
  D:0090H         PUBLIC        P1
  D:00A0H         PUBLIC        P2
  D:00B0H         PUBLIC        P3
  B:00A8H.7       PUBLIC        EA
  D:00F1H         PUBLIC        RTCON
BL51 BANKED LINKER/LOCATER V6.22                                                      07/26/2018  17:42:19  PAGE 16


  C:46B4H         PUBLIC        display_init_first
  D:00BAH         PUBLIC        ADCFGL
  B:0090H.6       PUBLIC        buzzer
  D:00E8H         PUBLIC        EXIE
  D:0089H         PUBLIC        TMOD
  C:4900H         PUBLIC        CfgFsys
  C:4816H         PUBLIC        adc_init
  C:0026H         PUBLIC        gpio_init
  B:00A8H.1       PUBLIC        ET0
  C:486EH         PUBLIC        Timer0_init
  D:008CH         PUBLIC        TH0
  D:008AH         PUBLIC        TL0
  D:00B9H         PUBLIC        ADCON
  D:00A2H         PUBLIC        CKSEL
  C:3FBDH         PUBLIC        DS1302_INIT
  -------         PROC          GPIO_INIT
  C:0026H         LINE#         5
  C:0026H         LINE#         6
  C:0026H         LINE#         7
  C:002CH         LINE#         8
  C:0030H         LINE#         9
  C:0034H         LINE#         10
  C:0038H         LINE#         12
  C:003EH         LINE#         14
  C:0042H         LINE#         16
  C:0048H         LINE#         17
  C:004CH         LINE#         18
  C:0050H         LINE#         19
  C:0054H         LINE#         21
  C:005AH         LINE#         23
  C:0060H         LINE#         25
  C:0065H         LINE#         26
  C:0067H         LINE#         28
  -------         ENDPROC       GPIO_INIT
  -------         PROC          CFGFSYS
  C:4900H         LINE#         31
  C:4900H         LINE#         32
  C:4900H         LINE#         35
  C:4903H         LINE#         37
  -------         ENDPROC       CFGFSYS
  -------         PROC          RTC_INIT
  C:4890H         LINE#         48
  C:4890H         LINE#         49
  C:4890H         LINE#         51
  C:4893H         LINE#         52
  C:4896H         LINE#         53
  C:4899H         LINE#         55
  C:489CH         LINE#         56
  C:489EH         LINE#         57
  -------         ENDPROC       RTC_INIT
  -------         PROC          ADC_INIT
  C:4816H         LINE#         59
  C:4816H         LINE#         60
  C:4816H         LINE#         61
  C:481CH         LINE#         62
  C:481FH         LINE#         63
  C:4822H         LINE#         64
BL51 BANKED LINKER/LOCATER V6.22                                                      07/26/2018  17:42:19  PAGE 17


  C:482AH         LINE#         65
  C:482DH         LINE#         68
  -------         ENDPROC       ADC_INIT
  -------         PROC          DS1302_INIT
  -------         DO            
  X:0000H         SYMBOL        ds1320_state
  D:0007H         SYMBOL        rom_value
  -------         ENDDO         
  C:3FBDH         LINE#         71
  C:3FBDH         LINE#         72
  C:3FBDH         LINE#         73
  C:3FC2H         LINE#         74
  C:3FC5H         LINE#         75
  C:3FC8H         LINE#         76
  C:3FCDH         LINE#         77
  C:3FD2H         LINE#         78
  C:3FD5H         LINE#         79
  C:3FD8H         LINE#         80
  C:3FDDH         LINE#         81
  C:3FE0H         LINE#         82
  C:3FE5H         LINE#         83
  C:3FE5H         LINE#         84
  C:3FE8H         LINE#         85
  C:3FEBH         LINE#         86
  C:3FEEH         LINE#         87
  C:3FF3H         LINE#         88
  C:3FF8H         LINE#         89
  C:3FFBH         LINE#         91
  C:3FFBH         LINE#         94
  C:3FFEH         LINE#         95
  C:4003H         LINE#         96
  C:400BH         LINE#         97
  C:400EH         LINE#         98
  C:400EH         LINE#         99
  C:4014H         LINE#         100
  C:4014H         LINE#         101
  C:401BH         LINE#         102
  C:401BH         LINE#         103
  C:4022H         LINE#         104
  C:4028H         LINE#         105
  C:4028H         LINE#         110
  -------         ENDPROC       DS1302_INIT
  -------         PROC          DISPLAY_INIT_FIRST
  -------         DO            
  D:0007H         SYMBOL        rom2_value
  -------         ENDDO         
  C:46B4H         LINE#         111
  C:46B4H         LINE#         112
  C:46B4H         LINE#         114
  C:46B7H         LINE#         115
  C:46BCH         LINE#         116
  C:46BFH         LINE#         117
  C:46C4H         LINE#         118
  C:46C4H         LINE#         119
  C:46C7H         LINE#         120
  C:46CAH         LINE#         121
  C:46CDH         LINE#         122
BL51 BANKED LINKER/LOCATER V6.22                                                      07/26/2018  17:42:19  PAGE 18


  C:46D2H         LINE#         123
  C:46D7H         LINE#         124
  C:46DAH         LINE#         126
  C:46DAH         LINE#         127
  -------         ENDPROC       DISPLAY_INIT_FIRST
  -------         PROC          TIMER0_INIT
  C:486EH         LINE#         129
  C:486EH         LINE#         130
  C:486EH         LINE#         131
  C:4876H         LINE#         132
  C:4879H         LINE#         133
  C:487CH         LINE#         135
  C:487EH         LINE#         136
  -------         ENDPROC       TIMER0_INIT
  -------         ENDMOD        CONFIG

  -------         MODULE        DS1302
  C:0000H         SYMBOL        _ICE_DUMMY_
  D:0080H         PUBLIC        P0
  D:0090H         PUBLIC        P1
  D:00A0H         PUBLIC        P2
  D:00B0H         PUBLIC        P3
  C:4728H         PUBLIC        _WriteByteDS1302
  C:48C4H         PUBLIC        _Read_addr_byte_ds1302
  C:48ACH         PUBLIC        ds1302_w_off
  C:000EH         PUBLIC        _Write_addr_byte_ds1302
  B:00B0H.7       PUBLIC        SCLK
  C:489FH         PUBLIC        ds1302_w_on
  B:00B0H.5       PUBLIC        RSTB
  C:0003H         PUBLIC        ResetDS1302
  C:45DBH         PUBLIC        ReadByteDS1302
  B:00B0H.6       PUBLIC        I_O
  -------         PROC          RESETDS1302
  C:0003H         LINE#         5
  C:0003H         LINE#         6
  C:0003H         LINE#         7
  C:0005H         LINE#         8
  C:0007H         LINE#         9
  C:0009H         LINE#         10
  -------         ENDPROC       RESETDS1302
  -------         PROC          READBYTEDS1302
  -------         DO            
  D:0006H         SYMBOL        i
  D:0007H         SYMBOL        RByte
  D:0005H         SYMBOL        TempByte
  -------         ENDDO         
  C:45DBH         LINE#         26
  C:45DBH         LINE#         27
  C:45DBH         LINE#         31
  C:45E0H         LINE#         32
  C:45E1H         LINE#         33
  C:45E3H         LINE#         34
  C:45E9H         LINE#         35
  C:45EBH         LINE#         36
  C:45EBH         LINE#         37
  C:45EDH         LINE#         41
  C:45EFH         LINE#         42
BL51 BANKED LINKER/LOCATER V6.22                                                      07/26/2018  17:42:19  PAGE 19


  C:45F5H         LINE#         43
  C:45F9H         LINE#         44
  C:4600H         LINE#         45
  C:4603H         LINE#         46
  C:4605H         LINE#         47
  C:460AH         LINE#         48
  C:460AH         LINE#         49
  -------         ENDPROC       READBYTEDS1302
  -------         PROC          _WRITEBYTEDS1302
  D:0007H         SYMBOL        W_Byte
  -------         DO            
  D:0006H         SYMBOL        i
  -------         ENDDO         
  C:4728H         LINE#         51
  C:4728H         LINE#         52
  C:4728H         LINE#         54
  C:472DH         LINE#         55
  C:4733H         LINE#         56
  C:4735H         LINE#         57
  C:4737H         LINE#         58
  C:4739H         LINE#         59
  C:473FH         LINE#         60
  C:4741H         LINE#         61
  C:4745H         LINE#         66
  C:474AH         LINE#         67
  -------         ENDPROC       _WRITEBYTEDS1302
  -------         PROC          DS1302_W_ON
  C:489FH         LINE#         70
  C:489FH         LINE#         71
  C:489FH         LINE#         72
  C:48A2H         LINE#         73
  C:48A7H         LINE#         74
  -------         ENDPROC       DS1302_W_ON
  -------         PROC          DS1302_W_OFF
  C:48ACH         LINE#         77
  C:48ACH         LINE#         78
  C:48ACH         LINE#         79
  C:48AFH         LINE#         80
  C:48B4H         LINE#         81
  -------         ENDPROC       DS1302_W_OFF
  -------         PROC          _READ_ADDR_BYTE_DS1302
  D:0007H         SYMBOL        addr
  C:48C4H         LINE#         84
  C:48C4H         LINE#         85
  C:48C4H         LINE#         86
  C:48C7H         LINE#         87
  C:48CAH         LINE#         88
  C:48CDH         LINE#         89
  -------         ENDPROC       _READ_ADDR_BYTE_DS1302
  -------         PROC          _WRITE_ADDR_BYTE_DS1302
  D:0004H         SYMBOL        addr
  D:0005H         SYMBOL        DATA
  C:000EH         LINE#         91
  C:0010H         LINE#         92
  C:0010H         LINE#         93
  C:0013H         LINE#         94
  C:0016H         LINE#         95
BL51 BANKED LINKER/LOCATER V6.22                                                      07/26/2018  17:42:19  PAGE 20


  C:001BH         LINE#         96
  C:0020H         LINE#         97
  -------         ENDPROC       _WRITE_ADDR_BYTE_DS1302
  -------         ENDMOD        DS1302

  -------         MODULE        DELAY
  C:0000H         SYMBOL        _ICE_DUMMY_
  C:4846H         PUBLIC        _Delay_50us
  C:485CH         PUBLIC        _Delay_ms
  -------         PROC          _DELAY_50US
  D:0006H         SYMBOL        n
  -------         DO            
  D:0005H         SYMBOL        i
  -------         ENDDO         
  C:4846H         LINE#         5
  C:4846H         LINE#         6
  C:4846H         LINE#         12
  C:4850H         LINE#         13
  C:4850H         LINE#         14
  C:485BH         LINE#         15
  C:485BH         LINE#         16
  -------         ENDPROC       _DELAY_50US
  -------         PROC          _DELAY_MS
  D:0004H         SYMBOL        n
  C:485CH         LINE#         17
  C:485EH         LINE#         18
  C:485EH         LINE#         19
  C:4864H         LINE#         20
  C:4864H         LINE#         21
  C:486BH         LINE#         22
  C:486DH         LINE#         23
  -------         ENDPROC       _DELAY_MS
  -------         ENDMOD        DELAY

  -------         MODULE        FD612DRV_DOUBLE
  C:0000H         SYMBOL        _ICE_DUMMY_
  D:0080H         PUBLIC        P0
  D:0090H         PUBLIC        P1
  D:00A0H         PUBLIC        P2
  D:00B0H         PUBLIC        P3
  X:0164H         PUBLIC        FD612_PotiveTNage_Bitmap
  C:3D68H         SYMBOL        _FD612_Start
  C:40FFH         PUBLIC        _FD612_Init
  C:4029H         SYMBOL        _FD612_Stop
  C:3F4FH         PUBLIC        _FD612_Base_Refresh
  C:45A9H         PUBLIC        _FD612_Command
  C:47A5H         SYMBOL        FD628_Delay10us
  C:2F08H         PUBLIC        _FD612_PotiveTNage
  C:2E1BH         PUBLIC        _FD612_WrByte
  C:3DEAH         PUBLIC        _FD612_DispDataRefresh
  X:0224H         PUBLIC        DISP_TAB
  C:479EH         SYMBOL        L?0041
  C:479FH         SYMBOL        L?0042
  -------         PROC          L?0040
  -------         ENDPROC       L?0040
  C:479EH         SYMBOL        L?0041
  C:479FH         SYMBOL        L?0042
BL51 BANKED LINKER/LOCATER V6.22                                                      07/26/2018  17:42:19  PAGE 21


  -------         PROC          FD628_DELAY10US
  -------         DO            
  D:0007H         SYMBOL        i
  -------         ENDDO         
  C:47A5H         LINE#         18
  C:47A5H         LINE#         19
  C:47A5H         LINE#         22
  C:47A6H         LINE#         23
  C:47A8H         LINE#         24
  C:47AAH         LINE#         25
  -------         ENDPROC       FD628_DELAY10US
  -------         PROC          _FD612_START
  X:0012H         SYMBOL        ops
  C:3D68H         LINE#         52
  C:3D73H         LINE#         53
  C:3D73H         LINE#         54
  C:3D87H         LINE#         55
  C:3D9BH         LINE#         56
  C:3DAFH         LINE#         57
  C:3DC0H         LINE#         58
  C:3DC3H         LINE#         59
  C:3DD0H         LINE#         60
  C:3DD3H         LINE#         61
  C:3DE7H         LINE#         62
  -------         ENDPROC       _FD612_START
  -------         PROC          _FD612_STOP
  X:0012H         SYMBOL        ops
  C:4029H         LINE#         71
  C:4034H         LINE#         72
  C:4034H         LINE#         73
  C:4048H         LINE#         74
  C:405CH         LINE#         75
  C:406AH         LINE#         76
  C:406DH         LINE#         77
  C:4081H         LINE#         78
  -------         ENDPROC       _FD612_STOP
  -------         PROC          _FD612_WRBYTE
  X:0012H         SYMBOL        ops
  X:0015H         SYMBOL        dat
  -------         DO            
  X:0016H         SYMBOL        i
  X:0017H         SYMBOL        ACKTemp
  -------         ENDDO         
  C:2E1BH         LINE#         88
  C:2E29H         LINE#         89
  C:2E29H         LINE#         91
  C:2E30H         LINE#         92
  C:2E44H         LINE#         93
  C:2E49H         LINE#         94
  C:2E49H         LINE#         95
  C:2E53H         LINE#         96
  C:2E53H         LINE#         97
  C:2E5EH         LINE#         98
  C:2E60H         LINE#         100
  C:2E60H         LINE#         101
  C:2E71H         LINE#         102
  C:2E71H         LINE#         103
BL51 BANKED LINKER/LOCATER V6.22                                                      07/26/2018  17:42:19  PAGE 22


  C:2E85H         LINE#         104
  C:2E8DH         LINE#         105
  C:2E8DH         LINE#         106
  C:2E8DH         LINE#         107
  C:2E90H         LINE#         108
  C:2E9BH         LINE#         110
  C:2EAFH         LINE#         111
  C:2EC3H         LINE#         112
  C:2ED7H         LINE#         113
  C:2EF7H         LINE#         114
  C:2EFCH         LINE#         115
  C:2EFCH         LINE#         116
  C:2EFCH         LINE#         117
  C:2EFFH         LINE#         118
  C:2F07H         LINE#         119
  -------         ENDPROC       _FD612_WRBYTE
  -------         PROC          _FD612_COMMAND
  X:000EH         SYMBOL        ops
  X:0011H         SYMBOL        CMD
  C:45A9H         LINE#         143
  C:45B9H         LINE#         144
  C:45B9H         LINE#         145
  C:45BCH         LINE#         146
  C:45CDH         LINE#         147
  -------         ENDPROC       _FD612_COMMAND
  -------         PROC          _FD612_DISPDATAREFRESH
  X:0007H         SYMBOL        FD612_DispBuff
  X:000AH         SYMBOL        ops
  -------         DO            
  X:000DH         SYMBOL        i
  -------         ENDDO         
  C:3DEAH         LINE#         155
  C:3DF5H         LINE#         156
  C:3DF5H         LINE#         158
  C:3E03H         LINE#         159
  C:3E11H         LINE#         160
  C:3E21H         LINE#         165
  C:3E30H         LINE#         166
  C:3E5AH         LINE#         168
  -------         ENDPROC       _FD612_DISPDATAREFRESH
  -------         PROC          _FD612_BASE_REFRESH
  X:0001H         SYMBOL        FD612_DispBuff
  X:0004H         SYMBOL        ops
  C:3F4FH         LINE#         177
  C:3F5AH         LINE#         178
  C:3F5AH         LINE#         179
  C:3F7AH         LINE#         180
  C:3F9DH         LINE#         181
  -------         ENDPROC       _FD612_BASE_REFRESH
  -------         PROC          _FD612_POTIVETNAGE
  X:0001H         SYMBOL        Addr
  X:0002H         SYMBOL        Dat
  X:0003H         SYMBOL        FD612_DispBuff
  -------         DO            
  X:0006H         SYMBOL        i
  X:0007H         SYMBOL        j
  -------         ENDDO         
BL51 BANKED LINKER/LOCATER V6.22                                                      07/26/2018  17:42:19  PAGE 23


  C:2F08H         LINE#         289
  C:2F19H         LINE#         291
  C:2F29H         LINE#         292
  C:2F46H         LINE#         293
  C:2F46H         LINE#         294
  C:2F6DH         LINE#         295
  C:2F96H         LINE#         296
  C:2F98H         LINE#         298
  C:2FE8H         LINE#         299
  C:2FF1H         LINE#         300
  -------         ENDPROC       _FD612_POTIVETNAGE
  -------         PROC          _FD612_INIT
  X:0000H         SYMBOL        ops
  X:0003H         SYMBOL        FD612_DispBuff
  -------         DO            
  D:0007H         SYMBOL        i
  -------         ENDDO         
  C:40FFH         LINE#         370
  C:410AH         LINE#         371
  C:410AH         LINE#         373
  C:412AH         LINE#         374
  C:412CH         LINE#         375
  C:4141H         LINE#         376
  C:4146H         LINE#         378
  -------         ENDPROC       _FD612_INIT
  -------         ENDMOD        FD612DRV_DOUBLE

  -------         MODULE        FD612DRV_DEMO
  C:0000H         SYMBOL        _ICE_DUMMY_
  D:0080H         PUBLIC        P0
  D:0090H         PUBLIC        P1
  B:0090H.5       PUBLIC        FD612_CLK_B
  D:00A0H         PUBLIC        P2
  D:00B0H         PUBLIC        P3
  B:0090H.4       PUBLIC        FD612_DIO_B
  X:0304H         PUBLIC        fd612_base_ops
  X:031CH         PUBLIC        FD612_base_DispBuff
  C:490AH         PUBLIC        FD612_BASE_SDA_CLR
  C:4904H         PUBLIC        FD612_BASE_SCL_CLR
  C:4907H         PUBLIC        FD612_BASE_SDA_SET
  C:0068H         PUBLIC        FD612_BASE_SCL_SET
  X:032AH         PUBLIC        fd612_top_ops
  X:0342H         PUBLIC        FD612_top_DispBuff
  C:48ECH         PUBLIC        FD612_BASE_SDA_IN
  C:48DEH         PUBLIC        FD612_BASE_SDA_D_OUT
  C:387AH         PUBLIC        FD612_app_init
  C:48D7H         PUBLIC        FD612_BASE_SCL_D_OUT
  C:48E5H         PUBLIC        FD612_BASE_SDA_D_IN
  -------         PROC          FD612_BASE_SCL_D_OUT
  C:48D7H         LINE#         51
  C:48D7H         LINE#         52
  C:48D7H         LINE#         53
  C:48DDH         LINE#         54
  -------         ENDPROC       FD612_BASE_SCL_D_OUT
  -------         PROC          FD612_BASE_SDA_D_OUT
  C:48DEH         LINE#         55
  C:48DEH         LINE#         56
BL51 BANKED LINKER/LOCATER V6.22                                                      07/26/2018  17:42:19  PAGE 24


  C:48DEH         LINE#         57
  C:48E4H         LINE#         58
  -------         ENDPROC       FD612_BASE_SDA_D_OUT
  -------         PROC          FD612_BASE_SDA_D_IN
  C:48E5H         LINE#         59
  C:48E5H         LINE#         60
  C:48E5H         LINE#         61
  C:48EBH         LINE#         62
  -------         ENDPROC       FD612_BASE_SDA_D_IN
  -------         PROC          FD612_BASE_SDA_IN
  C:48ECH         LINE#         64
  C:48ECH         LINE#         65
  C:48ECH         LINE#         66
  C:48F2H         LINE#         67
  -------         ENDPROC       FD612_BASE_SDA_IN
  -------         PROC          FD612_BASE_SCL_SET
  C:0068H         LINE#         69
  C:0068H         LINE#         70
  C:0068H         LINE#         71
  C:006AH         LINE#         72
  -------         ENDPROC       FD612_BASE_SCL_SET
  -------         PROC          FD612_BASE_SCL_CLR
  C:4904H         LINE#         74
  C:4904H         LINE#         75
  C:4904H         LINE#         76
  C:4906H         LINE#         77
  -------         ENDPROC       FD612_BASE_SCL_CLR
  -------         PROC          FD612_BASE_SDA_SET
  C:4907H         LINE#         79
  C:4907H         LINE#         80
  C:4907H         LINE#         81
  C:4909H         LINE#         82
  -------         ENDPROC       FD612_BASE_SDA_SET
  -------         PROC          FD612_BASE_SDA_CLR
  C:490AH         LINE#         84
  C:490AH         LINE#         85
  C:490AH         LINE#         86
  C:490CH         LINE#         87
  -------         ENDPROC       FD612_BASE_SDA_CLR
  -------         PROC          FD612_APP_INIT
  -------         DO            
  D:0007H         SYMBOL        loop
  -------         ENDDO         
  C:387AH         LINE#         90
  C:387AH         LINE#         91
  C:387AH         LINE#         103
  C:3888H         LINE#         104
  C:3896H         LINE#         105
  C:38A4H         LINE#         106
  C:38B2H         LINE#         107
  C:38C0H         LINE#         108
  C:38CEH         LINE#         109
  C:38DCH         LINE#         110
  C:38EAH         LINE#         112
  C:3901H         LINE#         122
  C:3903H         LINE#         123
  C:390FH         LINE#         124
BL51 BANKED LINKER/LOCATER V6.22                                                      07/26/2018  17:42:19  PAGE 25


  C:3914H         LINE#         127
  -------         ENDPROC       FD612_APP_INIT
  -------         ENDMOD        FD612DRV_DEMO

  -------         MODULE        FD616
  C:0000H         SYMBOL        _ICE_DUMMY_
  D:0080H         PUBLIC        P0
  D:0090H         PUBLIC        P1
  D:00A0H         PUBLIC        P2
  D:00B0H         PUBLIC        P3
  C:47E4H         SYMBOL        FD616_Start
  C:47C8H         PUBLIC        FD616_Init
  X:0350H         PUBLIC        FD616_DispBuff
  C:4508H         SYMBOL        _FD616_WriteByte
  C:47FDH         SYMBOL        FD616_Stop
  C:48FAH         PUBLIC        DELAY10us
  C:482EH         PUBLIC        _FD616_Command
  C:48B9H         PUBLIC        FD616_Refresh
  B:0090H.2       PUBLIC        FD616_SDA
  C:3EE0H         PUBLIC        _anode_display
  B:0090H.3       PUBLIC        FD616_SCL
  C:4663H         PUBLIC        FD616_DispDataRefresh
  -------         PROC          DELAY10US
  -------         DO            
  D:0007H         SYMBOL        i
  -------         ENDDO         
  C:48FAH         LINE#         18
  C:48FAH         LINE#         19
  C:48FAH         LINE#         27
  C:48FBH         LINE#         28
  C:48FDH         LINE#         29
  C:48FFH         LINE#         45
  -------         ENDPROC       DELAY10US
  -------         PROC          FD616_START
  C:47E4H         LINE#         54
  C:47E4H         LINE#         55
  C:47E4H         LINE#         56
  C:47EAH         LINE#         57
  C:47EEH         LINE#         58
  C:47F0H         LINE#         59
  C:47F2H         LINE#         60
  C:47F5H         LINE#         61
  C:47F7H         LINE#         62
  C:47FAH         LINE#         63
  C:47FCH         LINE#         64
  -------         ENDPROC       FD616_START
  -------         PROC          FD616_STOP
  C:47FDH         LINE#         74
  C:47FDH         LINE#         75
  C:47FDH         LINE#         76
  C:4803H         LINE#         77
  C:4807H         LINE#         78
  C:4809H         LINE#         79
  C:480CH         LINE#         80
  C:480EH         LINE#         81
  C:4811H         LINE#         82
  C:4813H         LINE#         83
BL51 BANKED LINKER/LOCATER V6.22                                                      07/26/2018  17:42:19  PAGE 26


  -------         ENDPROC       FD616_STOP
  -------         PROC          _FD616_WRITEBYTE
  D:0006H         SYMBOL        dat
  -------         DO            
  D:0005H         SYMBOL        i
  -------         ENDDO         
  C:4508H         LINE#         93
  C:450AH         LINE#         94
  C:450AH         LINE#         96
  C:4510H         LINE#         97
  C:4512H         LINE#         98
  C:4512H         LINE#         99
  C:4516H         LINE#         100
  C:4516H         LINE#         101
  C:4518H         LINE#         102
  C:451AH         LINE#         104
  C:451AH         LINE#         105
  C:451CH         LINE#         106
  C:451CH         LINE#         107
  C:451FH         LINE#         108
  C:4521H         LINE#         109
  C:4525H         LINE#         110
  C:4528H         LINE#         111
  C:452AH         LINE#         112
  C:452FH         LINE#         114
  C:4531H         LINE#         115
  C:4537H         LINE#         116
  C:453AH         LINE#         117
  C:453CH         LINE#         118
  C:453FH         LINE#         119
  C:4541H         LINE#         120
  -------         ENDPROC       _FD616_WRITEBYTE
  -------         PROC          _FD616_COMMAND
  D:0007H         SYMBOL        dispstatetemp
  C:482EH         LINE#         139
  C:482EH         LINE#         140
  C:482EH         LINE#         141
  C:4833H         LINE#         142
  C:4836H         LINE#         143
  C:483BH         LINE#         144
  C:4843H         LINE#         145
  -------         ENDPROC       _FD616_COMMAND
  -------         PROC          FD616_INIT
  -------         DO            
  D:0007H         SYMBOL        i
  -------         ENDDO         
  C:47C8H         LINE#         386
  C:47C8H         LINE#         387
  C:47C8H         LINE#         389
  C:47CEH         LINE#         392
  C:47D0H         LINE#         393
  C:47D0H         LINE#         394
  C:47DCH         LINE#         395
  C:47E1H         LINE#         396
  -------         ENDPROC       FD616_INIT
  -------         PROC          FD616_REFRESH
  C:48B9H         LINE#         404
BL51 BANKED LINKER/LOCATER V6.22                                                      07/26/2018  17:42:19  PAGE 27


  C:48B9H         LINE#         405
  C:48B9H         LINE#         407
  C:48BCH         LINE#         408
  -------         ENDPROC       FD616_REFRESH
  -------         PROC          FD616_DISPDATAREFRESH
  -------         DO            
  D:0004H         SYMBOL        i
  -------         ENDDO         
  C:4663H         LINE#         412
  C:4663H         LINE#         413
  C:4663H         LINE#         415
  C:4666H         LINE#         416
  C:466BH         LINE#         417
  C:466DH         LINE#         418
  C:4681H         LINE#         419
  C:4684H         LINE#         420
  -------         ENDPROC       FD616_DISPDATAREFRESH
  -------         PROC          _ANODE_DISPLAY
  X:0013H         SYMBOL        addr
  X:0014H         SYMBOL        Data
  -------         DO            
  D:0005H         SYMBOL        i
  -------         ENDDO         
  C:3EE0H         LINE#         423
  C:3EEBH         LINE#         424
  C:3EEBH         LINE#         426
  C:3EEDH         LINE#         427
  C:3EEDH         LINE#         428
  C:3EF4H         LINE#         429
  C:3EF4H         LINE#         430
  C:3F15H         LINE#         431
  C:3F17H         LINE#         433
  C:3F17H         LINE#         434
  C:3F3EH         LINE#         435
  C:3F3EH         LINE#         436
  C:3F49H         LINE#         437
  C:3F4EH         LINE#         438
  -------         ENDPROC       _ANODE_DISPLAY
  -------         ENDMOD        FD616

  -------         MODULE        MAIN
  C:0000H         SYMBOL        _ICE_DUMMY_
  X:801DH         PUBLIC        P35F
  X:800FH         PUBLIC        P17F
  X:801EH         PUBLIC        P36F
  D:0080H         PUBLIC        P0
  X:801FH         PUBLIC        P37F
  D:0090H         PUBLIC        P1
  D:00A0H         PUBLIC        P2
  D:00B0H         PUBLIC        P3
  B:00A8H.7       PUBLIC        EA
  X:8100H         PUBLIC        SPMAX
  X:8021H         PUBLIC        ADCALH
  X:8020H         PUBLIC        ADCALL
  C:4354H         PUBLIC        main
  X:FC03H         PUBLIC        LOCK
  X:8101H         PUBLIC        I2CIOS
BL51 BANKED LINKER/LOCATER V6.22                                                      07/26/2018  17:42:19  PAGE 28


  X:FC06H         PUBLIC        PTSH
  X:FC05H         PUBLIC        PTSL
  X:FC04H         PUBLIC        PADRD
  X:FC01H         PUBLIC        FSCMD
  X:FC02H         PUBLIC        FSDAT
  X:FC00H         PUBLIC        MECON
  X:8000H         PUBLIC        P00F
  X:8008H         PUBLIC        P10F
  X:8001H         PUBLIC        P01F
  X:8010H         PUBLIC        P20F
  X:8009H         PUBLIC        P11F
  X:8002H         PUBLIC        P02F
  X:8018H         PUBLIC        P30F
  X:8011H         PUBLIC        P21F
  X:800AH         PUBLIC        P12F
  X:8003H         PUBLIC        P03F
  X:8019H         PUBLIC        P31F
  X:800BH         PUBLIC        P13F
  X:8004H         PUBLIC        P04F
  X:801AH         PUBLIC        P32F
  X:800CH         PUBLIC        P14F
  X:8005H         PUBLIC        P05F
  X:801BH         PUBLIC        P33F
  X:800DH         PUBLIC        P15F
  X:8006H         PUBLIC        P06F
  X:801CH         PUBLIC        P34F
  X:800EH         PUBLIC        P16F
  X:8007H         PUBLIC        P07F
  -------         PROC          MAIN
  C:4354H         LINE#         23
  C:4354H         LINE#         24
  C:4354H         LINE#         26
  C:435FH         LINE#         36
  C:4368H         LINE#         39
  C:436AH         LINE#         41
  C:436DH         LINE#         42
  C:4370H         LINE#         43
  C:4373H         LINE#         44
  C:4376H         LINE#         45
  C:4379H         LINE#         46
  C:437CH         LINE#         47
  C:437FH         LINE#         48
  C:4382H         LINE#         49
  C:4385H         LINE#         50
  C:4388H         LINE#         51
  C:438BH         LINE#         52
  C:438EH         LINE#         55
  C:438EH         LINE#         56
  C:438EH         LINE#         59
  C:4391H         LINE#         60
  C:4394H         LINE#         61
  C:4397H         LINE#         62
  C:439AH         LINE#         64
  C:439DH         LINE#         65
  C:439DH         LINE#         66
  C:43A0H         LINE#         67
  C:43A2H         LINE#         69
BL51 BANKED LINKER/LOCATER V6.22                                                      07/26/2018  17:42:19  PAGE 29


  C:43A2H         LINE#         70
  C:43A5H         LINE#         71
  C:43A8H         LINE#         72
  C:43A8H         LINE#         73
  -------         ENDPROC       MAIN
  -------         ENDMOD        MAIN

  -------         MODULE        USR
  C:0000H         SYMBOL        _ICE_DUMMY_
  C:47ABH         PUBLIC        key_into_init
  C:214CH         PUBLIC        _alarm_sleep_judge
  C:3713H         PUBLIC        voice_control
  C:283DH         PUBLIC        _set_time_mon_blink
  D:0080H         PUBLIC        P0
  X:02B0H         PUBLIC        back_TIME_Flag
  D:0090H         PUBLIC        P1
  D:00A0H         PUBLIC        P2
  C:48CEH         PUBLIC        TIMER0_ISR
  D:00B0H         PUBLIC        P3
  X:02B1H         PUBLIC        ADC_Display
  B:0020H.0       PUBLIC        display_flag_week
  B:0020H.1       PUBLIC        alarm_voice_flag
  C:3B27H         PUBLIC        key_display_up_down
  X:02B2H         PUBLIC        DOWN_Long_Flag
  X:02B3H         PUBLIC        SET_Short_Flag_mon_day
  X:02B4H         PUBLIC        DOWN_Short_Flag
  X:02B5H         PUBLIC        display_flag_year
  X:02B6H         PUBLIC        ADC_ONE
  X:02B7H         PUBLIC        TEM_F
  C:448AH         PUBLIC        power_detect
  C:23C9H         PUBLIC        ADC_Convert
  B:0020H.2       PUBLIC        blink_flag
  C:1BFAH         PUBLIC        display_init
  C:1FCFH         PUBLIC        _alarm_hour_up_down
  X:02BBH         PUBLIC        SET_Short_Flag_hur_min
  X:02BCH         PUBLIC        voice_flag
  C:1961H         PUBLIC        display_all
  B:0020H.3       PUBLIC        HalfSecFlag
  C:2737H         PUBLIC        _alarm_min_up_down
  X:02BDH         PUBLIC        SET_Short_Flag_display
  C:261FH         PUBLIC        _alarm_on_off_set
  X:02BEH         PUBLIC        key_time_2count
  B:0020H.4       PUBLIC        back_first
  X:02BFH         PUBLIC        hour_chage_state
  C:39D6H         PUBLIC        _mday_long_up_down
  X:02C0H         PUBLIC        voice_fisrt
  C:2B40H         PUBLIC        _alarm_hour_blink
  B:0080H.6       PUBLIC        UP
  B:0090H.6       PUBLIC        buzzer
  C:31A5H         PUBLIC        _year_long_up_down
  C:2C38H         PUBLIC        _alarm_min_blink
  B:0020H.5       PUBLIC        long_flag
  C:3339H         PUBLIC        _hour_chage_input
  X:02C1H         PUBLIC        time
  X:02C8H         PUBLIC        power_delay_time
  B:0020H.6       PUBLIC        adc_first
  X:02C9H         PUBLIC        flag_year_leap
BL51 BANKED LINKER/LOCATER V6.22                                                      07/26/2018  17:42:19  PAGE 30


  X:02CDH         PUBLIC        ADC_Display1
  C:2FF2H         PUBLIC        _hour_long_up_down
  X:02CEH         PUBLIC        ADC_TIME_Flag
  B:0080H.7       PUBLIC        RESET1
  C:3C57H         PUBLIC        RTC_ISR
  C:4449H         PUBLIC        after_arrive_write_1302
  C:4639H         PUBLIC        alarm_time_init
  B:0080H.5       PUBLIC        DOWN
  B:0020H.7       PUBLIC        long_add_flag
  C:392BH         PUBLIC        _min_long_up_down
  X:02CFH         PUBLIC        power_first
  X:02D0H         PUBLIC        SET_Long_Flag
  C:468CH         PUBLIC        _leep_year
  X:02D1H         PUBLIC        SET_Short_Flag
  C:2946H         PUBLIC        mday_over_judge
  C:3403H         PUBLIC        _mon_long_up_down
  X:02D2H         PUBLIC        dis
  X:02DCH         PUBLIC        alarm1
  B:0021H.0       PUBLIC        blink2_flag
  X:02E1H         PUBLIC        alarm2
  C:37C8H         PUBLIC        hour_min_display
  B:0021H.1       PUBLIC        blink3_flag
  B:0021H.2       PUBLIC        time1_second
  X:02E6H         PUBLIC        alarm3
  X:02EBH         PUBLIC        display_flag_mon_day
  C:3CE3H         PUBLIC        from_ds1302_read_time_data
  B:0080H.3       PUBLIC        voice_key
  C:0978H         PUBLIC        key_statue
  X:02ECH         PUBLIC        hour_12_24_flag
  X:02EDH         PUBLIC        dc
  X:02EEH         PUBLIC        sd_select_first
  C:476EH         PUBLIC        _key_off_alarm_clock
  C:3590H         PUBLIC        _set_time_minute_blink
  C:460BH         PUBLIC        Alarm_display
  D:008CH         PUBLIC        TH0
  X:02EFH         PUBLIC        display_flag_hur_min
  D:008AH         PUBLIC        TL0
  C:4542H         PUBLIC        _alarm_24switch12
  C:4702H         PUBLIC        _alarm_12switch24
  C:3A87H         PUBLIC        _hour_over_judge
  X:02F0H         PUBLIC        set_status_flag
  X:02F1H         PUBLIC        sd_flag
  D:00BDH         PUBLIC        ADCDH
  B:0021H.3       PUBLIC        key_first
  X:02F2H         PUBLIC        delaytime_1second
  B:0088H.4       PUBLIC        TR0
  C:44D3H         PUBLIC        _min_over_judge
  C:1285H         PUBLIC        de_week
  X:02F3H         PUBLIC        dc_1second
  X:02F4H         PUBLIC        ADC_AVG_NUM
  D:00BCH         PUBLIC        ADCDL
  B:0080H.1       PUBLIC        power_key
  B:0021H.4       PUBLIC        sd_mode_flag
  C:423DH         PUBLIC        mon_over_judge
  C:4884H         PUBLIC        _decimal_bcd
  C:4760H         PUBLIC        _bcd_decimal
  C:429BH         PUBLIC        _alarm_hour_set
BL51 BANKED LINKER/LOCATER V6.22                                                      07/26/2018  17:42:19  PAGE 31


  C:2298H         PUBLIC        sd_mode
  X:02F7H         PUBLIC        dc_over_flag
  C:42F8H         PUBLIC        _alarm_min_set
  X:02F8H         PUBLIC        TEM
  D:00B9H         PUBLIC        ADCON
  C:3654H         PUBLIC        _set_time_year_blink
  X:02FCH         PUBLIC        back_voice_Flag
  C:30DAH         PUBLIC        _Week_display
  B:00B0H.4       PUBLIC        SET
  X:02FDH         PUBLIC        key_delaytime
  X:02FEH         PUBLIC        key_time_2second
  C:2D2BH         PUBLIC        _set_time_day_blink
  X:02FFH         PUBLIC        UP_Long_Flag
  C:34CCH         PUBLIC        _set_time_hour_blink
  X:0300H         PUBLIC        UP_Short_Flag
  C:326FH         PUBLIC        InitDS1302
  X:0301H         PUBLIC        flag_display
  C:3E68H         PUBLIC        _display_12_24_blink
  D:00EEH         PUBLIC        RTCIF
  C:2A43H         PUBLIC        bright_contrl
  C:1639H         PUBLIC        display
  X:0302H         PUBLIC        hour_pm_flag
  X:0303H         PUBLIC        alarm_clock_flag
  B:0021H.5       PUBLIC        up_down_flag
  -------         PROC          TIMER0_ISR
  C:48CEH         LINE#         47
  C:48CEH         LINE#         49
  C:48D1H         LINE#         50
  C:48D4H         LINE#         51
  C:48D6H         LINE#         53
  -------         ENDPROC       TIMER0_ISR
  -------         PROC          RTC_ISR
  C:3C57H         LINE#         55
  C:3C64H         LINE#         57
  C:3C69H         LINE#         58
  C:3C69H         LINE#         59
  C:3C6CH         LINE#         60
  C:3C6CH         LINE#         61
  C:3C71H         LINE#         62
  C:3C71H         LINE#         63
  C:3C74H         LINE#         65
  C:3C7AH         LINE#         66
  C:3C86H         LINE#         67
  C:3C86H         LINE#         68
  C:3C88H         LINE#         69
  C:3C8AH         LINE#         70
  C:3C90H         LINE#         71
  C:3C95H         LINE#         72
  C:3C95H         LINE#         73
  C:3C9BH         LINE#         74
  C:3CA7H         LINE#         75
  C:3CA7H         LINE#         76
  C:3CA9H         LINE#         77
  C:3CAEH         LINE#         81
  C:3CAEH         LINE#         82
  C:3CB4H         LINE#         83
  C:3CBEH         LINE#         84
BL51 BANKED LINKER/LOCATER V6.22                                                      07/26/2018  17:42:19  PAGE 32


  C:3CBEH         LINE#         85
  C:3CC0H         LINE#         86
  C:3CC6H         LINE#         87
  C:3CCCH         LINE#         88
  C:3CD2H         LINE#         89
  C:3CD8H         LINE#         90
  C:3CD8H         LINE#         91
  C:3CD8H         LINE#         93
  -------         ENDPROC       RTC_ISR
  C:4756H         SYMBOL        L?0571
  C:475BH         SYMBOL        L?0572
  -------         PROC          L?0570
  -------         ENDPROC       L?0570
  C:4756H         SYMBOL        L?0571
  C:475BH         SYMBOL        L?0572
  -------         PROC          _BCD_DECIMAL
  D:0007H         SYMBOL        bcd
  C:4760H         LINE#         104
  C:4760H         LINE#         105
  C:4760H         LINE#         106
  C:476DH         LINE#         107
  -------         ENDPROC       _BCD_DECIMAL
  C:487FH         SYMBOL        L?0574
  -------         PROC          L?0573
  -------         ENDPROC       L?0573
  C:487FH         SYMBOL        L?0574
  -------         PROC          _DECIMAL_BCD
  D:0007H         SYMBOL        decimal
  C:4884H         LINE#         116
  C:4884H         LINE#         117
  C:4884H         LINE#         118
  C:488FH         LINE#         119
  -------         ENDPROC       _DECIMAL_BCD
  -------         PROC          _LEEP_YEAR
  D:0002H         SYMBOL        year
  C:468CH         LINE#         121
  C:4690H         LINE#         122
  C:4690H         LINE#         123
  C:46AEH         LINE#         124
  C:46B1H         LINE#         126
  C:46B3H         LINE#         127
  -------         ENDPROC       _LEEP_YEAR
  -------         PROC          ALARM_DISPLAY
  C:460BH         LINE#         130
  C:460BH         LINE#         131
  C:460BH         LINE#         147
  C:4611H         LINE#         148
  C:4611H         LINE#         150
  C:461AH         LINE#         151
  C:461AH         LINE#         152
  C:4620H         LINE#         153
  C:4620H         LINE#         155
  C:4629H         LINE#         156
  C:4629H         LINE#         157
  C:462FH         LINE#         158
  C:462FH         LINE#         160
  C:4638H         LINE#         161
BL51 BANKED LINKER/LOCATER V6.22                                                      07/26/2018  17:42:19  PAGE 33


  C:4638H         LINE#         162
  -------         ENDPROC       ALARM_DISPLAY
  -------         PROC          KEY_STATUE
  C:0978H         LINE#         165
  C:0978H         LINE#         166
  C:0978H         LINE#         167
  C:097BH         LINE#         169
  C:0996H         LINE#         170
  C:099CH         LINE#         171
  C:099CH         LINE#         173
  C:099FH         LINE#         174
  C:09A5H         LINE#         175
  C:09A5H         LINE#         177
  C:09B5H         LINE#         178
  C:09B5H         LINE#         179
  C:09B8H         LINE#         180
  C:09B8H         LINE#         181
  C:09BBH         LINE#         182
  C:09BBH         LINE#         183
  C:09BDH         LINE#         184
  C:09C4H         LINE#         185
  C:09D1H         LINE#         186
  C:09EAH         LINE#         187
  C:09EDH         LINE#         188
  C:09EFH         LINE#         190
  C:09EFH         LINE#         191
  C:09F1H         LINE#         192
  C:09F8H         LINE#         194
  C:09F8H         LINE#         195
  C:0A05H         LINE#         196
  C:0A1EH         LINE#         197
  C:0A21H         LINE#         198
  C:0A23H         LINE#         199
  C:0A23H         LINE#         201
  C:0A23H         LINE#         204
  C:0A26H         LINE#         205
  C:0A31H         LINE#         206
  C:0A31H         LINE#         207
  C:0A33H         LINE#         208
  C:0A38H         LINE#         209
  C:0A3DH         LINE#         210
  C:0A41H         LINE#         211
  C:0A46H         LINE#         212
  C:0A4AH         LINE#         213
  C:0A4CH         LINE#         215
  C:0A51H         LINE#         216
  C:0A54H         LINE#         217
  C:0A54H         LINE#         218
  C:0A57H         LINE#         219
  C:0A5CH         LINE#         220
  C:0A5FH         LINE#         221
  C:0A62H         LINE#         222
  C:0A62H         LINE#         223
  C:0A68H         LINE#         224
  C:0A6DH         LINE#         225
  C:0A6DH         LINE#         226
  C:0A6DH         LINE#         227
BL51 BANKED LINKER/LOCATER V6.22                                                      07/26/2018  17:42:19  PAGE 34


  C:0A73H         LINE#         228
  C:0A73H         LINE#         229
  C:0A76H         LINE#         230
  C:0A7CH         LINE#         231
  C:0A7CH         LINE#         233
  C:0A7FH         LINE#         234
  C:0A86H         LINE#         235
  C:0A86H         LINE#         237
  C:0A88H         LINE#         238
  C:0A8CH         LINE#         239
  C:0A8EH         LINE#         240
  C:0A95H         LINE#         241
  C:0A95H         LINE#         242
  C:0AD2H         LINE#         243
  C:0AD2H         LINE#         244
  C:0AD2H         LINE#         245
  C:0AD2H         LINE#         246
  C:0AD7H         LINE#         247
  C:0AD9H         LINE#         250
  C:0AD9H         LINE#         251
  C:0AD9H         LINE#         252
  C:0AD9H         LINE#         253
  C:0ADEH         LINE#         254
  C:0AE0H         LINE#         257
  C:0AE0H         LINE#         258
  C:0AE0H         LINE#         259
  C:0AE0H         LINE#         260
  C:0AE5H         LINE#         261
  C:0AE7H         LINE#         264
  C:0AE7H         LINE#         272
  C:0AE7H         LINE#         273
  C:0AE7H         LINE#         274
  C:0AECH         LINE#         275
  C:0AEEH         LINE#         278
  C:0AEEH         LINE#         279
  C:0AEEH         LINE#         280
  C:0AEEH         LINE#         281
  C:0AF3H         LINE#         282
  C:0AF5H         LINE#         285
  C:0AF5H         LINE#         294
  C:0AF5H         LINE#         295
  C:0AF5H         LINE#         296
  C:0AFBH         LINE#         299
  C:0AFDH         LINE#         302
  C:0AFDH         LINE#         303
  C:0AFDH         LINE#         304
  C:0AFDH         LINE#         305
  C:0B03H         LINE#         307
  C:0B05H         LINE#         310
  C:0B05H         LINE#         318
  C:0B05H         LINE#         319
  C:0B05H         LINE#         320
  C:0B0BH         LINE#         323
  C:0B0DH         LINE#         326
  C:0B0DH         LINE#         327
  C:0B0DH         LINE#         328
  C:0B0DH         LINE#         330
BL51 BANKED LINKER/LOCATER V6.22                                                      07/26/2018  17:42:19  PAGE 35


  C:0B13H         LINE#         331
  C:0B15H         LINE#         334
  C:0B15H         LINE#         342
  C:0B15H         LINE#         343
  C:0B15H         LINE#         344
  C:0B22H         LINE#         347
  C:0B25H         LINE#         350
  C:0B25H         LINE#         351
  C:0B25H         LINE#         352
  C:0B25H         LINE#         354
  C:0B32H         LINE#         355
  C:0B35H         LINE#         358
  C:0B35H         LINE#         359
  C:0B35H         LINE#         360
  C:0B35H         LINE#         362
  C:0B35H         LINE#         363
  C:0B35H         LINE#         364
  C:0B35H         LINE#         365
  C:0B35H         LINE#         367
  C:0B35H         LINE#         368
  C:0B35H         LINE#         446
  C:0B37H         LINE#         447
  C:0B3CH         LINE#         448
  C:0B3FH         LINE#         449
  C:0B42H         LINE#         450
  C:0B42H         LINE#         451
  C:0B48H         LINE#         452
  C:0B4DH         LINE#         453
  C:0B4DH         LINE#         454
  C:0B4DH         LINE#         458
  C:0B53H         LINE#         459
  C:0B53H         LINE#         460
  C:0B56H         LINE#         461
  C:0B5CH         LINE#         462
  C:0B5CH         LINE#         463
  C:0B5FH         LINE#         464
  C:0B66H         LINE#         465
  C:0B66H         LINE#         466
  C:0B68H         LINE#         467
  C:0B6AH         LINE#         468
  C:0B6CH         LINE#         469
  C:0B72H         LINE#         471
  C:0B7DH         LINE#         472
  C:0B7DH         LINE#         473
  C:0BBAH         LINE#         474
  C:0BBAH         LINE#         475
  C:0BBAH         LINE#         476
  C:0BBAH         LINE#         477
  C:0BBFH         LINE#         478
  C:0BC1H         LINE#         481
  C:0BC1H         LINE#         482
  C:0BC1H         LINE#         483
  C:0BC1H         LINE#         484
  C:0BC6H         LINE#         485
  C:0BC8H         LINE#         488
  C:0BC8H         LINE#         489
  C:0BC8H         LINE#         490
BL51 BANKED LINKER/LOCATER V6.22                                                      07/26/2018  17:42:19  PAGE 36


  C:0BC8H         LINE#         491
  C:0BCDH         LINE#         492
  C:0BCFH         LINE#         495
  C:0BCFH         LINE#         503
  C:0BCFH         LINE#         504
  C:0BCFH         LINE#         505
  C:0BD4H         LINE#         506
  C:0BD6H         LINE#         509
  C:0BD6H         LINE#         510
  C:0BD6H         LINE#         511
  C:0BD6H         LINE#         512
  C:0BDBH         LINE#         513
  C:0BDEH         LINE#         516
  C:0BDEH         LINE#         525
  C:0BDEH         LINE#         526
  C:0BDEH         LINE#         527
  C:0BE4H         LINE#         529
  C:0BE6H         LINE#         532
  C:0BE6H         LINE#         533
  C:0BE6H         LINE#         534
  C:0BE6H         LINE#         535
  C:0BECH         LINE#         537
  C:0BEEH         LINE#         540
  C:0BEEH         LINE#         548
  C:0BEEH         LINE#         549
  C:0BEEH         LINE#         550
  C:0BF4H         LINE#         552
  C:0BF6H         LINE#         555
  C:0BF6H         LINE#         556
  C:0BF6H         LINE#         557
  C:0BF6H         LINE#         558
  C:0BFCH         LINE#         560
  C:0BFEH         LINE#         563
  C:0BFEH         LINE#         571
  C:0BFEH         LINE#         572
  C:0BFEH         LINE#         573
  C:0C0BH         LINE#         575
  C:0C0EH         LINE#         578
  C:0C0EH         LINE#         579
  C:0C0EH         LINE#         580
  C:0C0EH         LINE#         581
  C:0C1BH         LINE#         583
  C:0C1EH         LINE#         586
  C:0C1EH         LINE#         587
  C:0C1EH         LINE#         588
  C:0C1EH         LINE#         590
  C:0C1EH         LINE#         591
  C:0C1EH         LINE#         592
  C:0C1EH         LINE#         593
  C:0C1EH         LINE#         595
  C:0C1EH         LINE#         596
  C:0C29H         LINE#         597
  C:0C29H         LINE#         598
  C:0C33H         LINE#         599
  C:0C38H         LINE#         600
  C:0C48H         LINE#         601
  C:0C48H         LINE#         602
BL51 BANKED LINKER/LOCATER V6.22                                                      07/26/2018  17:42:19  PAGE 37


  C:0C48H         LINE#         603
  C:0C48H         LINE#         604
  C:0C74H         LINE#         605
  C:0CA2H         LINE#         606
  C:0CAFH         LINE#         607
  C:0CB6H         LINE#         608
  C:0CCDH         LINE#         609
  C:0CD2H         LINE#         610
  C:0CD5H         LINE#         611
  C:0CD5H         LINE#         614
  C:0CD5H         LINE#         615
  C:0CD5H         LINE#         616
  C:0CEFH         LINE#         617
  C:0D0DH         LINE#         618
  C:0D28H         LINE#         619
  C:0D42H         LINE#         620
  C:0D5CH         LINE#         621
  C:0D76H         LINE#         622
  C:0D8DH         LINE#         623
  C:0D93H         LINE#         625
  C:0D93H         LINE#         626
  C:0D93H         LINE#         627
  C:0D93H         LINE#         628
  C:0D93H         LINE#         629
  C:0D93H         LINE#         630
  C:0D98H         LINE#         631
  C:0D98H         LINE#         632
  C:0D98H         LINE#         633
  C:0D98H         LINE#         634
  C:0D9BH         LINE#         709
  C:0DA1H         LINE#         710
  C:0DA3H         LINE#         711
  C:0DA8H         LINE#         712
  C:0DABH         LINE#         713
  C:0DAEH         LINE#         714
  C:0DAEH         LINE#         715
  C:0DB4H         LINE#         716
  C:0DB9H         LINE#         717
  C:0DB9H         LINE#         718
  C:0DB9H         LINE#         720
  C:0DBCH         LINE#         721
  C:0DBCH         LINE#         722
  C:0DBEH         LINE#         723
  C:0DC3H         LINE#         724
  C:0DC5H         LINE#         725
  C:0DC7H         LINE#         726
  C:0DCAH         LINE#         727
  C:0DD0H         LINE#         728
  C:0DD4H         LINE#         729
  C:0DDAH         LINE#         730
  C:0DE4H         LINE#         733
  C:0DE7H         LINE#         734
  C:0DE7H         LINE#         736
  C:0DE7H         LINE#         767
  C:0DF0H         LINE#         768
  C:0DF9H         LINE#         769
  -------         ENDPROC       KEY_STATUE
BL51 BANKED LINKER/LOCATER V6.22                                                      07/26/2018  17:42:19  PAGE 38


  -------         PROC          DISPLAY
  C:1639H         LINE#         775
  C:1639H         LINE#         776
  C:1639H         LINE#         778
  C:163CH         LINE#         779
  C:163FH         LINE#         781
  C:1648H         LINE#         782
  C:1648H         LINE#         783
  C:164BH         LINE#         784
  C:164BH         LINE#         785
  C:164DH         LINE#         786
  C:1652H         LINE#         787
  C:1656H         LINE#         788
  C:1656H         LINE#         791
  C:165CH         LINE#         792
  C:165CH         LINE#         793
  C:1662H         LINE#         794
  C:1667H         LINE#         796
  C:1670H         LINE#         797
  C:1670H         LINE#         798
  C:1672H         LINE#         799
  C:1672H         LINE#         800
  C:1672H         LINE#         802
  C:16B2H         LINE#         803
  C:16B2H         LINE#         804
  C:16B2H         LINE#         805
  C:16B2H         LINE#         807
  C:16B7H         LINE#         808
  C:16BBH         LINE#         809
  C:16C2H         LINE#         810
  C:16C2H         LINE#         811
  C:16C8H         LINE#         812
  C:16D0H         LINE#         813
  C:16D5H         LINE#         814
  C:16D5H         LINE#         815
  C:16DCH         LINE#         816
  C:16DCH         LINE#         817
  C:16E2H         LINE#         818
  C:16E9H         LINE#         819
  C:16EEH         LINE#         820
  C:16EEH         LINE#         821
  C:16F9H         LINE#         822
  C:16FBH         LINE#         823
  C:16FEH         LINE#         824
  C:16FEH         LINE#         825
  C:16FEH         LINE#         826
  C:16FEH         LINE#         827
  C:1703H         LINE#         828
  C:1708H         LINE#         831
  C:170DH         LINE#         832
  C:1714H         LINE#         833
  C:1714H         LINE#         834
  C:1714H         LINE#         835
  C:1717H         LINE#         836
  C:171CH         LINE#         837
  C:171CH         LINE#         838
  C:1723H         LINE#         839
BL51 BANKED LINKER/LOCATER V6.22                                                      07/26/2018  17:42:19  PAGE 39


  C:1723H         LINE#         840
  C:1729H         LINE#         842
  C:172CH         LINE#         843
  C:1731H         LINE#         844
  C:1731H         LINE#         845
  C:173CH         LINE#         846
  C:173EH         LINE#         847
  C:1740H         LINE#         848
  C:1740H         LINE#         849
  C:1740H         LINE#         850
  C:1740H         LINE#         851
  C:1745H         LINE#         852
  C:174AH         LINE#         853
  C:174FH         LINE#         854
  C:1758H         LINE#         855
  C:1758H         LINE#         856
  C:1758H         LINE#         857
  C:175BH         LINE#         858
  C:1760H         LINE#         859
  C:1760H         LINE#         860
  C:1769H         LINE#         861
  C:1769H         LINE#         862
  C:176FH         LINE#         863
  C:1772H         LINE#         864
  C:1777H         LINE#         865
  C:1777H         LINE#         866
  C:177DH         LINE#         867
  C:1782H         LINE#         868
  C:1785H         LINE#         869
  C:1785H         LINE#         870
  C:1785H         LINE#         871
  C:1785H         LINE#         872
  C:178FH         LINE#         873
  C:1799H         LINE#         875
  C:17A0H         LINE#         876
  C:17A0H         LINE#         877
  C:17AAH         LINE#         878
  C:17B1H         LINE#         879
  C:17B4H         LINE#         880
  C:17B7H         LINE#         881
  C:17B7H         LINE#         882
  C:17BAH         LINE#         883
  C:17BFH         LINE#         884
  C:17C4H         LINE#         885
  C:17C9H         LINE#         886
  C:17CEH         LINE#         887
  C:17D9H         LINE#         888
  C:17D9H         LINE#         889
  C:17DFH         LINE#         890
  C:17DFH         LINE#         892
  C:17E1H         LINE#         893
  C:17E5H         LINE#         894
  C:17EEH         LINE#         895
  C:17F7H         LINE#         896
  C:1800H         LINE#         899
  C:1802H         LINE#         901
  C:1802H         LINE#         902
BL51 BANKED LINKER/LOCATER V6.22                                                      07/26/2018  17:42:19  PAGE 40


  C:1808H         LINE#         903
  C:180CH         LINE#         904
  C:1815H         LINE#         905
  C:181EH         LINE#         906
  C:1827H         LINE#         911
  C:1827H         LINE#         912
  C:182CH         LINE#         916
  C:182CH         LINE#         917
  C:182FH         LINE#         918
  C:182FH         LINE#         919
  C:182FH         LINE#         920
  C:182FH         LINE#         921
  C:1834H         LINE#         922
  C:183BH         LINE#         923
  C:183BH         LINE#         924
  C:1845H         LINE#         925
  C:184CH         LINE#         926
  C:184FH         LINE#         927
  C:1852H         LINE#         928
  C:1852H         LINE#         929
  C:1857H         LINE#         930
  C:185EH         LINE#         931
  C:185EH         LINE#         932
  C:185EH         LINE#         934
  C:1861H         LINE#         935
  C:1866H         LINE#         936
  C:1866H         LINE#         937
  C:1871H         LINE#         938
  C:1871H         LINE#         939
  C:1877H         LINE#         940
  C:187CH         LINE#         942
  C:187CH         LINE#         943
  C:187CH         LINE#         946
  C:187EH         LINE#         947
  C:187EH         LINE#         948
  C:187EH         LINE#         949
  C:187EH         LINE#         950
  C:1883H         LINE#         951
  C:1887H         LINE#         952
  C:188EH         LINE#         953
  C:188EH         LINE#         954
  C:188EH         LINE#         955
  C:1891H         LINE#         956
  C:1896H         LINE#         958
  C:1896H         LINE#         959
  C:18A1H         LINE#         960
  C:18A1H         LINE#         961
  C:18A7H         LINE#         962
  C:18ACH         LINE#         963
  C:18B1H         LINE#         966
  C:18B1H         LINE#         968
  C:18B4H         LINE#         969
  C:18B4H         LINE#         970
  C:18B4H         LINE#         971
  C:18B4H         LINE#         975
  C:18B6H         LINE#         976
  C:18BBH         LINE#         977
BL51 BANKED LINKER/LOCATER V6.22                                                      07/26/2018  17:42:19  PAGE 41


  C:18C3H         LINE#         980
  C:18C5H         LINE#         981
  C:18C5H         LINE#         982
  C:18C5H         LINE#         983
  C:18C5H         LINE#         984
  C:18CBH         LINE#         986
  C:18CDH         LINE#         987
  C:18CDH         LINE#         988
  C:18CDH         LINE#         989
  C:18CDH         LINE#         990
  C:18D3H         LINE#         992
  C:18D5H         LINE#         993
  C:18D5H         LINE#         994
  C:18D5H         LINE#         995
  C:18D5H         LINE#         996
  C:18D7H         LINE#         997
  C:18DCH         LINE#         998
  C:18E4H         LINE#         1001
  C:18E6H         LINE#         1002
  C:18E6H         LINE#         1003
  C:18E6H         LINE#         1004
  C:18E6H         LINE#         1005
  C:18ECH         LINE#         1006
  C:18EEH         LINE#         1007
  C:18EEH         LINE#         1008
  C:18EEH         LINE#         1009
  C:18EEH         LINE#         1010
  C:18F4H         LINE#         1012
  C:18F6H         LINE#         1013
  C:18F6H         LINE#         1014
  C:18F6H         LINE#         1015
  C:18F6H         LINE#         1016
  C:18F8H         LINE#         1017
  C:18FDH         LINE#         1018
  C:1908H         LINE#         1020
  C:190AH         LINE#         1021
  C:190AH         LINE#         1022
  C:190AH         LINE#         1023
  C:190AH         LINE#         1024
  C:1913H         LINE#         1026
  C:1915H         LINE#         1027
  C:1915H         LINE#         1028
  C:1915H         LINE#         1029
  C:1915H         LINE#         1030
  C:191EH         LINE#         1032
  C:1920H         LINE#         1033
  C:1920H         LINE#         1034
  C:1920H         LINE#         1035
  C:1920H         LINE#         1036
  C:1925H         LINE#         1037
  C:1929H         LINE#         1038
  C:192EH         LINE#         1039
  C:1932H         LINE#         1040
  C:1936H         LINE#         1041
  C:1938H         LINE#         1042
  C:1938H         LINE#         1043
  C:1938H         LINE#         1044
BL51 BANKED LINKER/LOCATER V6.22                                                      07/26/2018  17:42:19  PAGE 42


  C:1938H         LINE#         1045
  C:193FH         LINE#         1046
  C:193FH         LINE#         1047
  C:1945H         LINE#         1048
  C:1949H         LINE#         1049
  C:194DH         LINE#         1050
  C:194FH         LINE#         1051
  C:1954H         LINE#         1052
  C:1958H         LINE#         1053
  C:195AH         LINE#         1054
  C:195CH         LINE#         1055
  C:1960H         LINE#         1056
  C:1960H         LINE#         1058
  C:1960H         LINE#         1060
  -------         ENDPROC       DISPLAY
  -------         PROC          ALARM_TIME_INIT
  C:4639H         LINE#         1062
  C:4639H         LINE#         1063
  C:4639H         LINE#         1064
  C:463FH         LINE#         1065
  C:4642H         LINE#         1066
  C:4644H         LINE#         1067
  C:4646H         LINE#         1068
  C:4648H         LINE#         1069
  C:464CH         LINE#         1070
  C:464FH         LINE#         1071
  C:4651H         LINE#         1072
  C:4653H         LINE#         1073
  C:4655H         LINE#         1074
  C:4659H         LINE#         1075
  C:465CH         LINE#         1076
  C:465EH         LINE#         1077
  C:4660H         LINE#         1078
  C:4662H         LINE#         1080
  -------         ENDPROC       ALARM_TIME_INIT
  -------         PROC          KEY_INTO_INIT
  C:47ABH         LINE#         1083
  C:47ABH         LINE#         1084
  C:47ABH         LINE#         1085
  C:47ADH         LINE#         1086
  C:47AFH         LINE#         1088
  C:47B4H         LINE#         1089
  C:47B8H         LINE#         1092
  C:47BCH         LINE#         1094
  C:47BEH         LINE#         1095
  C:47C3H         LINE#         1096
  C:47C5H         LINE#         1097
  C:47C7H         LINE#         1102
  -------         ENDPROC       KEY_INTO_INIT
  -------         PROC          _DISPLAY_12_24_BLINK
  X:0000H         SYMBOL        i
  C:3E68H         LINE#         1104
  C:3E6DH         LINE#         1105
  C:3E6DH         LINE#         1106
  C:3E70H         LINE#         1107
  C:3E70H         LINE#         1109
  C:3E73H         LINE#         1110
BL51 BANKED LINKER/LOCATER V6.22                                                      07/26/2018  17:42:19  PAGE 43


  C:3E73H         LINE#         1111
  C:3E75H         LINE#         1112
  C:3E7BH         LINE#         1113
  C:3E7BH         LINE#         1115
  C:3E87H         LINE#         1116
  C:3E8AH         LINE#         1118
  C:3E8CH         LINE#         1120
  C:3E8CH         LINE#         1122
  C:3E98H         LINE#         1123
  C:3EA4H         LINE#         1124
  C:3EA4H         LINE#         1125
  C:3EADH         LINE#         1126
  C:3EB1H         LINE#         1127
  C:3EB1H         LINE#         1130
  C:3EB3H         LINE#         1132
  C:3EB3H         LINE#         1133
  C:3EB5H         LINE#         1134
  C:3EBBH         LINE#         1135
  C:3EBBH         LINE#         1136
  C:3EC2H         LINE#         1137
  C:3ECAH         LINE#         1138
  C:3ED2H         LINE#         1139
  C:3EDAH         LINE#         1140
  C:3EDDH         LINE#         1141
  C:3EDDH         LINE#         1142
  C:3EDDH         LINE#         1143
  C:3EDFH         LINE#         1144
  C:3EDFH         LINE#         1145
  -------         ENDPROC       _DISPLAY_12_24_BLINK
  -------         PROC          _SET_TIME_YEAR_BLINK
  X:0000H         SYMBOL        i
  C:3654H         LINE#         1148
  C:3659H         LINE#         1149
  C:3659H         LINE#         1150
  C:365FH         LINE#         1151
  C:365FH         LINE#         1153
  C:3662H         LINE#         1154
  C:3662H         LINE#         1155
  C:3664H         LINE#         1158
  C:3674H         LINE#         1159
  C:3684H         LINE#         1160
  C:36A2H         LINE#         1161
  C:36BDH         LINE#         1162
  C:36BDH         LINE#         1163
  C:36BFH         LINE#         1165
  C:36BFH         LINE#         1166
  C:36C1H         LINE#         1167
  C:36C7H         LINE#         1168
  C:36D2H         LINE#         1169
  C:36DFH         LINE#         1170
  C:36ECH         LINE#         1171
  C:36F9H         LINE#         1172
  C:3710H         LINE#         1173
  C:3710H         LINE#         1174
  C:3710H         LINE#         1175
  C:3712H         LINE#         1176
  C:3712H         LINE#         1177
BL51 BANKED LINKER/LOCATER V6.22                                                      07/26/2018  17:42:19  PAGE 44


  -------         ENDPROC       _SET_TIME_YEAR_BLINK
  -------         PROC          DISPLAY_ALL
  C:1961H         LINE#         1283
  C:1961H         LINE#         1284
  C:1961H         LINE#         1288
  C:1968H         LINE#         1289
  C:1968H         LINE#         1290
  C:196BH         LINE#         1293
  C:196BH         LINE#         1294
  C:1976H         LINE#         1295
  C:1976H         LINE#         1296
  C:1980H         LINE#         1297
  C:1980H         LINE#         1298
  C:199BH         LINE#         1299
  C:19A7H         LINE#         1300
  C:19A9H         LINE#         1301
  C:19B2H         LINE#         1302
  C:19B2H         LINE#         1303
  C:19BFH         LINE#         1304
  C:19D9H         LINE#         1305
  C:19D9H         LINE#         1306
  C:19F7H         LINE#         1307
  C:1A17H         LINE#         1308
  C:1A1EH         LINE#         1309
  C:1A35H         LINE#         1310
  C:1A35H         LINE#         1311
  C:1A3DH         LINE#         1312
  C:1A3DH         LINE#         1313
  C:1A4DH         LINE#         1314
  C:1A5DH         LINE#         1315
  C:1A7BH         LINE#         1316
  C:1A9BH         LINE#         1317
  C:1AB2H         LINE#         1318
  C:1AB2H         LINE#         1319
  C:1AB5H         LINE#         1320
  C:1AB5H         LINE#         1321
  C:1AB8H         LINE#         1322
  C:1ABAH         LINE#         1323
  C:1ABAH         LINE#         1324
  C:1AC1H         LINE#         1325
  C:1AC1H         LINE#         1326
  C:1AC4H         LINE#         1327
  C:1AC9H         LINE#         1328
  C:1AC9H         LINE#         1330
  C:1ACCH         LINE#         1332
  C:1AD2H         LINE#         1333
  C:1AD2H         LINE#         1334
  C:1AFEH         LINE#         1335
  C:1B2CH         LINE#         1336
  C:1B39H         LINE#         1337
  C:1B40H         LINE#         1342
  C:1B41H         LINE#         1344
  C:1B41H         LINE#         1345
  C:1B5BH         LINE#         1346
  C:1B79H         LINE#         1347
  C:1B94H         LINE#         1348
  C:1BAEH         LINE#         1349
BL51 BANKED LINKER/LOCATER V6.22                                                      07/26/2018  17:42:19  PAGE 45


  C:1BC8H         LINE#         1350
  C:1BE2H         LINE#         1351
  C:1BF9H         LINE#         1353
  C:1BF9H         LINE#         1356
  -------         ENDPROC       DISPLAY_ALL
  -------         PROC          _SET_TIME_HOUR_BLINK
  X:0000H         SYMBOL        i
  C:34CCH         LINE#         1358
  C:34D1H         LINE#         1359
  C:34D1H         LINE#         1361
  C:34D7H         LINE#         1362
  C:34D7H         LINE#         1365
  C:34F1H         LINE#         1366
  C:350DH         LINE#         1367
  C:3510H         LINE#         1368
  C:3510H         LINE#         1369
  C:3518H         LINE#         1370
  C:3532H         LINE#         1371
  C:3549H         LINE#         1373
  C:354BH         LINE#         1375
  C:354BH         LINE#         1376
  C:354DH         LINE#         1377
  C:3555H         LINE#         1378
  C:355DH         LINE#         1379
  C:355DH         LINE#         1380
  C:3564H         LINE#         1381
  C:3571H         LINE#         1382
  C:358AH         LINE#         1383
  C:358DH         LINE#         1384
  C:358FH         LINE#         1385
  C:358FH         LINE#         1386
  -------         ENDPROC       _SET_TIME_HOUR_BLINK
  -------         PROC          AFTER_ARRIVE_WRITE_1302
  C:4449H         LINE#         1389
  C:4449H         LINE#         1390
  C:4449H         LINE#         1394
  C:444CH         LINE#         1395
  C:4451H         LINE#         1396
  C:4459H         LINE#         1397
  C:445CH         LINE#         1398
  C:445CH         LINE#         1399
  C:4460H         LINE#         1400
  C:4465H         LINE#         1401
  C:4467H         LINE#         1403
  C:4467H         LINE#         1404
  C:446EH         LINE#         1405
  C:4474H         LINE#         1406
  C:4474H         LINE#         1407
  C:4477H         LINE#         1408
  C:447AH         LINE#         1409
  C:447FH         LINE#         1410
  C:4487H         LINE#         1411
  -------         ENDPROC       AFTER_ARRIVE_WRITE_1302
  -------         PROC          _SET_TIME_MINUTE_BLINK
  X:0000H         SYMBOL        i
  C:3590H         LINE#         1415
  C:3595H         LINE#         1416
BL51 BANKED LINKER/LOCATER V6.22                                                      07/26/2018  17:42:19  PAGE 46


  C:3595H         LINE#         1417
  C:359BH         LINE#         1418
  C:359BH         LINE#         1419
  C:35B5H         LINE#         1420
  C:35D1H         LINE#         1422
  C:35D4H         LINE#         1423
  C:35D4H         LINE#         1424
  C:35DCH         LINE#         1426
  C:35F6H         LINE#         1427
  C:360DH         LINE#         1432
  C:360FH         LINE#         1434
  C:360FH         LINE#         1435
  C:3611H         LINE#         1436
  C:3619H         LINE#         1437
  C:3621H         LINE#         1443
  C:3621H         LINE#         1444
  C:3628H         LINE#         1445
  C:3635H         LINE#         1446
  C:364EH         LINE#         1447
  C:3651H         LINE#         1448
  C:3653H         LINE#         1449
  C:3653H         LINE#         1450
  -------         ENDPROC       _SET_TIME_MINUTE_BLINK
  -------         PROC          _SET_TIME_MON_BLINK
  X:0000H         SYMBOL        i
  C:283DH         LINE#         1453
  C:2842H         LINE#         1454
  C:2842H         LINE#         1455
  C:2860H         LINE#         1456
  C:2880H         LINE#         1458
  C:2887H         LINE#         1459
  C:288DH         LINE#         1460
  C:288DH         LINE#         1462
  C:2890H         LINE#         1463
  C:2890H         LINE#         1464
  C:2892H         LINE#         1465
  C:289CH         LINE#         1466
  C:289CH         LINE#         1467
  C:28B7H         LINE#         1468
  C:28C3H         LINE#         1469
  C:28C3H         LINE#         1470
  C:28C5H         LINE#         1471
  C:28CEH         LINE#         1472
  C:28CEH         LINE#         1473
  C:28DBH         LINE#         1474
  C:28F5H         LINE#         1475
  C:28FCH         LINE#         1476
  C:28FCH         LINE#         1478
  C:28FCH         LINE#         1480
  C:28FEH         LINE#         1482
  C:28FEH         LINE#         1483
  C:2900H         LINE#         1484
  C:2906H         LINE#         1485
  C:2912H         LINE#         1486
  C:291FH         LINE#         1487
  C:2926H         LINE#         1489
  C:293DH         LINE#         1490
BL51 BANKED LINKER/LOCATER V6.22                                                      07/26/2018  17:42:19  PAGE 47


  C:293DH         LINE#         1491
  C:293DH         LINE#         1492
  C:293FH         LINE#         1493
  C:293FH         LINE#         1494
  -------         ENDPROC       _SET_TIME_MON_BLINK
  -------         PROC          _SET_TIME_DAY_BLINK
  X:0000H         SYMBOL        i
  C:2D2BH         LINE#         1496
  C:2D30H         LINE#         1497
  C:2D30H         LINE#         1498
  C:2D3AH         LINE#         1499
  C:2D3AH         LINE#         1500
  C:2D55H         LINE#         1501
  C:2D61H         LINE#         1502
  C:2D63H         LINE#         1503
  C:2D6CH         LINE#         1504
  C:2D6CH         LINE#         1505
  C:2D79H         LINE#         1506
  C:2D93H         LINE#         1507
  C:2D93H         LINE#         1508
  C:2D99H         LINE#         1509
  C:2D99H         LINE#         1511
  C:2D9CH         LINE#         1512
  C:2D9CH         LINE#         1513
  C:2D9EH         LINE#         1514
  C:2DBCH         LINE#         1515
  C:2DD7H         LINE#         1516
  C:2DD7H         LINE#         1518
  C:2DD7H         LINE#         1520
  C:2DD9H         LINE#         1522
  C:2DD9H         LINE#         1523
  C:2DDBH         LINE#         1524
  C:2DE1H         LINE#         1525
  C:2DEDH         LINE#         1526
  C:2DFAH         LINE#         1527
  C:2E01H         LINE#         1529
  C:2E18H         LINE#         1530
  C:2E18H         LINE#         1531
  C:2E18H         LINE#         1532
  C:2E1AH         LINE#         1533
  C:2E1AH         LINE#         1534
  -------         ENDPROC       _SET_TIME_DAY_BLINK
  -------         PROC          KEY_DISPLAY_UP_DOWN
  C:3B27H         LINE#         1708
  C:3B27H         LINE#         1709
  C:3B27H         LINE#         1710
  C:3B3BH         LINE#         1711
  C:3B3BH         LINE#         1712
  C:3B7BH         LINE#         1713
  C:3B7BH         LINE#         1714
  C:3B7BH         LINE#         1715
  C:3B7BH         LINE#         1716
  C:3B80H         LINE#         1717
  C:3B80H         LINE#         1718
  C:3B80H         LINE#         1719
  C:3B80H         LINE#         1720
  C:3B80H         LINE#         1721
BL51 BANKED LINKER/LOCATER V6.22                                                      07/26/2018  17:42:19  PAGE 48


  C:3B85H         LINE#         1722
  C:3B85H         LINE#         1723
  C:3B85H         LINE#         1724
  C:3B85H         LINE#         1725
  C:3B85H         LINE#         1726
  C:3B8AH         LINE#         1727
  C:3B8AH         LINE#         1728
  C:3B8AH         LINE#         1734
  C:3B8AH         LINE#         1735
  C:3B8AH         LINE#         1736
  C:3B8FH         LINE#         1737
  C:3B8FH         LINE#         1738
  C:3B8FH         LINE#         1739
  C:3B8FH         LINE#         1740
  C:3B8FH         LINE#         1741
  C:3B94H         LINE#         1742
  C:3B94H         LINE#         1743
  C:3B94H         LINE#         1750
  C:3B94H         LINE#         1751
  C:3B94H         LINE#         1752
  C:3B9AH         LINE#         1754
  C:3B9CH         LINE#         1755
  C:3B9CH         LINE#         1756
  C:3B9CH         LINE#         1757
  C:3B9CH         LINE#         1759
  C:3BA2H         LINE#         1760
  C:3BA4H         LINE#         1761
  C:3BA4H         LINE#         1767
  C:3BA4H         LINE#         1768
  C:3BA4H         LINE#         1769
  C:3BAAH         LINE#         1771
  C:3BACH         LINE#         1772
  C:3BACH         LINE#         1773
  C:3BACH         LINE#         1774
  C:3BACH         LINE#         1775
  C:3BB2H         LINE#         1777
  C:3BB4H         LINE#         1778
  C:3BB4H         LINE#         1784
  C:3BB4H         LINE#         1785
  C:3BB4H         LINE#         1786
  C:3BBFH         LINE#         1788
  C:3BBFH         LINE#         1789
  C:3BBFH         LINE#         1790
  C:3BBFH         LINE#         1791
  C:3BBFH         LINE#         1792
  C:3BCAH         LINE#         1794
  C:3BCAH         LINE#         1795
  C:3BCAH         LINE#         1796
  C:3BCAH         LINE#         1797
  C:3BCAH         LINE#         1799
  C:3BCAH         LINE#         1800
  C:3BCAH         LINE#         1801
  C:3BCAH         LINE#         1803
  C:3BCAH         LINE#         1804
  -------         ENDPROC       KEY_DISPLAY_UP_DOWN
  -------         PROC          _HOUR_LONG_UP_DOWN
  X:0000H         SYMBOL        i
BL51 BANKED LINKER/LOCATER V6.22                                                      07/26/2018  17:42:19  PAGE 49


  C:2FF2H         LINE#         1807
  C:2FF7H         LINE#         1808
  C:2FF7H         LINE#         1810
  C:3001H         LINE#         1811
  C:3008H         LINE#         1812
  C:3008H         LINE#         1813
  C:3012H         LINE#         1814
  C:3019H         LINE#         1816
  C:3019H         LINE#         1817
  C:3023H         LINE#         1818
  C:3029H         LINE#         1819
  C:3029H         LINE#         1820
  C:3029H         LINE#         1821
  C:302CH         LINE#         1824
  C:302CH         LINE#         1825
  C:3033H         LINE#         1826
  C:3033H         LINE#         1827
  C:3039H         LINE#         1828
  C:303EH         LINE#         1829
  C:303EH         LINE#         1830
  C:3048H         LINE#         1831
  C:304FH         LINE#         1832
  C:304FH         LINE#         1833
  C:3059H         LINE#         1834
  C:3060H         LINE#         1836
  C:3060H         LINE#         1837
  C:306AH         LINE#         1838
  C:3080H         LINE#         1839
  C:309CH         LINE#         1840
  C:30A3H         LINE#         1841
  C:30B0H         LINE#         1842
  C:30C9H         LINE#         1843
  C:30CCH         LINE#         1844
  C:30CFH         LINE#         1845
  C:30D4H         LINE#         1846
  C:30D9H         LINE#         1848
  -------         ENDPROC       _HOUR_LONG_UP_DOWN
  -------         PROC          _MIN_LONG_UP_DOWN
  X:0000H         SYMBOL        i
  C:392BH         LINE#         1851
  C:3930H         LINE#         1852
  C:3930H         LINE#         1854
  C:393AH         LINE#         1855
  C:393FH         LINE#         1856
  C:3945H         LINE#         1857
  C:3945H         LINE#         1858
  C:3945H         LINE#         1859
  C:3948H         LINE#         1860
  C:3948H         LINE#         1861
  C:394FH         LINE#         1862
  C:394FH         LINE#         1863
  C:3955H         LINE#         1864
  C:395AH         LINE#         1865
  C:395AH         LINE#         1866
  C:3964H         LINE#         1867
  C:3969H         LINE#         1868
  C:397FH         LINE#         1869
BL51 BANKED LINKER/LOCATER V6.22                                                      07/26/2018  17:42:19  PAGE 50


  C:399BH         LINE#         1870
  C:39A8H         LINE#         1871
  C:39AFH         LINE#         1872
  C:39C8H         LINE#         1873
  C:39CBH         LINE#         1886
  C:39D0H         LINE#         1887
  C:39D5H         LINE#         1888
  -------         ENDPROC       _MIN_LONG_UP_DOWN
  -------         PROC          _YEAR_LONG_UP_DOWN
  X:0000H         SYMBOL        i
  C:31A5H         LINE#         1890
  C:31AAH         LINE#         1891
  C:31AAH         LINE#         1892
  C:31B4H         LINE#         1893
  C:31B9H         LINE#         1894
  C:31C1H         LINE#         1895
  C:31C1H         LINE#         1896
  C:31C7H         LINE#         1897
  C:31CEH         LINE#         1898
  C:31CEH         LINE#         1899
  C:31D1H         LINE#         1900
  C:31D1H         LINE#         1901
  C:31D7H         LINE#         1902
  C:31DFH         LINE#         1904
  C:31DFH         LINE#         1905
  C:31EFH         LINE#         1906
  C:31FFH         LINE#         1907
  C:321DH         LINE#         1908
  C:323DH         LINE#         1909
  C:3254H         LINE#         1910
  C:325FH         LINE#         1911
  C:3264H         LINE#         1912
  C:3269H         LINE#         1913
  C:326EH         LINE#         1914
  -------         ENDPROC       _YEAR_LONG_UP_DOWN
  -------         PROC          _MON_LONG_UP_DOWN
  X:0000H         SYMBOL        i
  C:3403H         LINE#         1917
  C:3408H         LINE#         1918
  C:3408H         LINE#         1919
  C:3412H         LINE#         1924
  C:3417H         LINE#         1925
  C:341DH         LINE#         1926
  C:341DH         LINE#         1927
  C:341DH         LINE#         1928
  C:3420H         LINE#         1929
  C:3420H         LINE#         1930
  C:3427H         LINE#         1931
  C:3427H         LINE#         1932
  C:342DH         LINE#         1933
  C:3430H         LINE#         1934
  C:3430H         LINE#         1936
  C:343AH         LINE#         1937
  C:343AH         LINE#         1938
  C:3455H         LINE#         1939
  C:3461H         LINE#         1940
  C:3461H         LINE#         1941
BL51 BANKED LINKER/LOCATER V6.22                                                      07/26/2018  17:42:19  PAGE 51


  C:3463H         LINE#         1942
  C:346CH         LINE#         1943
  C:346CH         LINE#         1944
  C:3479H         LINE#         1945
  C:3493H         LINE#         1946
  C:349AH         LINE#         1947
  C:349AH         LINE#         1949
  C:34B1H         LINE#         1951
  C:34BCH         LINE#         1952
  C:34C1H         LINE#         1954
  C:34C6H         LINE#         1955
  C:34CBH         LINE#         1956
  -------         ENDPROC       _MON_LONG_UP_DOWN
  -------         PROC          _MDAY_LONG_UP_DOWN
  X:0000H         SYMBOL        i
  C:39D6H         LINE#         1958
  C:39DBH         LINE#         1959
  C:39DBH         LINE#         1960
  C:39E5H         LINE#         1961
  C:39EAH         LINE#         1962
  C:39F0H         LINE#         1963
  C:39F0H         LINE#         1964
  C:39F0H         LINE#         1965
  C:39F3H         LINE#         1966
  C:39F3H         LINE#         1967
  C:39FAH         LINE#         1968
  C:39FAH         LINE#         1969
  C:3A00H         LINE#         1970
  C:3A03H         LINE#         1971
  C:3A03H         LINE#         1973
  C:3A21H         LINE#         1974
  C:3A41H         LINE#         1975
  C:3A48H         LINE#         1976
  C:3A5FH         LINE#         1977
  C:3A65H         LINE#         1978
  C:3A6AH         LINE#         1979
  C:3A74H         LINE#         1981
  C:3A79H         LINE#         1982
  C:3A7EH         LINE#         1983
  -------         ENDPROC       _MDAY_LONG_UP_DOWN
  -------         PROC          ADC_CONVERT
  -------         DO            
  D:0006H         SYMBOL        AD_Value
  X:0000H         SYMBOL        VCC
  X:0004H         SYMBOL        ADC_VALUE
  X:0008H         SYMBOL        B_value
  -------         ENDDO         
  C:23C9H         LINE#         2235
  C:23C9H         LINE#         2236
  C:23C9H         LINE#         2238
  C:23D3H         LINE#         2240
  C:23DDH         LINE#         2244
  C:23E0H         LINE#         2245
  C:23E5H         LINE#         2246
  C:23E8H         LINE#         2248
  C:23F5H         LINE#         2249
  C:2402H         LINE#         2251
BL51 BANKED LINKER/LOCATER V6.22                                                      07/26/2018  17:42:19  PAGE 52


  C:242AH         LINE#         2253
  C:24AFH         LINE#         2254
  C:24CEH         LINE#         2255
  -------         ENDPROC       ADC_CONVERT
  -------         PROC          _ALARM_SLEEP_JUDGE
  D:0001H         SYMBOL        alarm
  -------         DO            
  X:0000H         SYMBOL        alarm_value1
  X:0001H         SYMBOL        alarm_value2
  X:0002H         SYMBOL        alarm_value3
  D:0007H         SYMBOL        alarm_value4
  D:0006H         SYMBOL        alarm_value5
  -------         ENDDO         
  C:214CH         LINE#         2262
  C:214CH         LINE#         2263
  C:214CH         LINE#         2265
  C:2179H         LINE#         2266
  C:2179H         LINE#         2267
  C:2181H         LINE#         2268
  C:2183H         LINE#         2269
  C:2183H         LINE#         2270
  C:218EH         LINE#         2271
  C:218EH         LINE#         2272
  C:219AH         LINE#         2273
  C:219FH         LINE#         2274
  C:21ACH         LINE#         2275
  C:21B0H         LINE#         2276
  C:21B9H         LINE#         2277
  C:21BCH         LINE#         2278
  C:21BCH         LINE#         2279
  C:21C2H         LINE#         2280
  C:21C2H         LINE#         2281
  C:21C5H         LINE#         2282
  C:21CBH         LINE#         2283
  C:21CDH         LINE#         2284
  C:21D2H         LINE#         2285
  C:21D2H         LINE#         2286
  C:21D2H         LINE#         2287
  C:21DCH         LINE#         2288
  C:21DCH         LINE#         2289
  C:21E7H         LINE#         2290
  C:21E7H         LINE#         2291
  C:21E7H         LINE#         2292
  C:21E7H         LINE#         2293
  C:21E7H         LINE#         2294
  C:21E7H         LINE#         2295
  C:21E9H         LINE#         2296
  C:21F5H         LINE#         2297
  C:21F5H         LINE#         2298
  C:21F7H         LINE#         2299
  C:21F9H         LINE#         2300
  C:21FBH         LINE#         2301
  C:21FBH         LINE#         2302
  C:2205H         LINE#         2303
  C:2205H         LINE#         2304
  C:2210H         LINE#         2305
  C:2210H         LINE#         2306
BL51 BANKED LINKER/LOCATER V6.22                                                      07/26/2018  17:42:19  PAGE 53


  C:2212H         LINE#         2307
  C:2212H         LINE#         2308
  C:2214H         LINE#         2309
  C:2220H         LINE#         2310
  C:2220H         LINE#         2311
  C:2222H         LINE#         2312
  C:2222H         LINE#         2313
  C:222CH         LINE#         2314
  C:222CH         LINE#         2315
  C:2237H         LINE#         2316
  C:2237H         LINE#         2317
  C:2237H         LINE#         2318
  C:2237H         LINE#         2319
  C:2237H         LINE#         2320
  C:2237H         LINE#         2321
  C:2239H         LINE#         2322
  C:2245H         LINE#         2323
  C:2245H         LINE#         2324
  C:2247H         LINE#         2325
  C:2249H         LINE#         2326
  C:224BH         LINE#         2327
  C:224BH         LINE#         2328
  C:2251H         LINE#         2329
  C:2251H         LINE#         2330
  C:225CH         LINE#         2331
  C:225CH         LINE#         2332
  C:225EH         LINE#         2333
  C:225EH         LINE#         2334
  C:2260H         LINE#         2335
  C:2267H         LINE#         2336
  C:2267H         LINE#         2337
  C:2269H         LINE#         2338
  C:2269H         LINE#         2339
  C:226FH         LINE#         2340
  C:226FH         LINE#         2341
  C:227AH         LINE#         2342
  C:227AH         LINE#         2343
  C:227CH         LINE#         2344
  C:227EH         LINE#         2345
  C:2281H         LINE#         2346
  C:2281H         LINE#         2347
  C:2281H         LINE#         2348
  C:2283H         LINE#         2349
  C:228AH         LINE#         2350
  C:228AH         LINE#         2351
  C:228CH         LINE#         2352
  C:228EH         LINE#         2353
  C:2295H         LINE#         2354
  C:2297H         LINE#         2355
  C:2297H         LINE#         2356
  C:2297H         LINE#         2359
  -------         ENDPROC       _ALARM_SLEEP_JUDGE
  -------         PROC          _WEEK_DISPLAY
  D:0007H         SYMBOL        value
  C:30DAH         LINE#         2680
  C:30DAH         LINE#         2681
  C:30DAH         LINE#         2682
BL51 BANKED LINKER/LOCATER V6.22                                                      07/26/2018  17:42:19  PAGE 54


  C:3107H         LINE#         2683
  C:3107H         LINE#         2684
  C:3107H         LINE#         2685
  C:3107H         LINE#         2687
  C:3110H         LINE#         2688
  C:3112H         LINE#         2689
  C:3112H         LINE#         2690
  C:3115H         LINE#         2691
  C:3115H         LINE#         2692
  C:3115H         LINE#         2693
  C:3115H         LINE#         2694
  C:311EH         LINE#         2695
  C:3127H         LINE#         2696
  C:3129H         LINE#         2697
  C:312BH         LINE#         2698
  C:312BH         LINE#         2699
  C:312BH         LINE#         2700
  C:312BH         LINE#         2701
  C:3134H         LINE#         2702
  C:313DH         LINE#         2703
  C:313FH         LINE#         2705
  C:3141H         LINE#         2706
  C:3141H         LINE#         2707
  C:3141H         LINE#         2708
  C:3141H         LINE#         2709
  C:314AH         LINE#         2710
  C:3153H         LINE#         2711
  C:3157H         LINE#         2713
  C:3159H         LINE#         2714
  C:3159H         LINE#         2715
  C:3159H         LINE#         2716
  C:3159H         LINE#         2717
  C:3162H         LINE#         2718
  C:316BH         LINE#         2719
  C:316FH         LINE#         2721
  C:3171H         LINE#         2722
  C:3171H         LINE#         2723
  C:3171H         LINE#         2724
  C:3171H         LINE#         2725
  C:317AH         LINE#         2726
  C:3183H         LINE#         2727
  C:3187H         LINE#         2729
  C:3189H         LINE#         2730
  C:3189H         LINE#         2731
  C:3189H         LINE#         2732
  C:3189H         LINE#         2733
  C:3192H         LINE#         2734
  C:319BH         LINE#         2735
  C:31A4H         LINE#         2737
  C:31A4H         LINE#         2738
  C:31A4H         LINE#         2739
  C:31A4H         LINE#         2740
  C:31A4H         LINE#         2742
  C:31A4H         LINE#         2743
  -------         ENDPROC       _WEEK_DISPLAY
  -------         PROC          DE_WEEK
  -------         DO            
BL51 BANKED LINKER/LOCATER V6.22                                                      07/26/2018  17:42:19  PAGE 55


  X:0000H         SYMBOL        i
  X:0004H         SYMBOL        year2
  X:0008H         SYMBOL        j
  X:000CH         SYMBOL        day
  D:0007H         SYMBOL        mweek
  X:0010H         SYMBOL        month
  X:0011H         SYMBOL        mday
  X:0012H         SYMBOL        year
  -------         ENDDO         
  C:1285H         LINE#         2746
  C:1285H         LINE#         2747
  C:1285H         LINE#         2748
  C:128FH         LINE#         2752
  C:1292H         LINE#         2753
  C:1297H         LINE#         2754
  C:129FH         LINE#         2755
  C:12A2H         LINE#         2756
  C:12A7H         LINE#         2757
  C:12AFH         LINE#         2758
  C:12B2H         LINE#         2759
  C:12B7H         LINE#         2760
  C:12BDH         LINE#         2762
  C:12C2H         LINE#         2763
  C:12C5H         LINE#         2764
  C:12CAH         LINE#         2766
  C:12DCH         LINE#         2767
  C:1308H         LINE#         2768
  C:1308H         LINE#         2769
  C:1329H         LINE#         2770
  C:1346H         LINE#         2771
  C:1368H         LINE#         2772
  C:1392H         LINE#         2773
  C:1392H         LINE#         2774
  C:1428H         LINE#         2775
  C:1447H         LINE#         2776
  C:14A0H         LINE#         2777
  C:14BFH         LINE#         2778
  C:150CH         LINE#         2779
  C:1558H         LINE#         2780
  C:157AH         LINE#         2781
  C:15A3H         LINE#         2782
  C:15BCH         LINE#         2783
  C:15DEH         LINE#         2784
  C:15DEH         LINE#         2785
  C:15E6H         LINE#         2786
  C:15EEH         LINE#         2787
  C:15F6H         LINE#         2788
  C:15FEH         LINE#         2789
  C:1606H         LINE#         2790
  C:160EH         LINE#         2791
  C:1614H         LINE#         2792
  C:1614H         LINE#         2793
  C:1617H         LINE#         2794
  C:161AH         LINE#         2795
  C:161FH         LINE#         2796
  C:1627H         LINE#         2797
  C:162AH         LINE#         2798
BL51 BANKED LINKER/LOCATER V6.22                                                      07/26/2018  17:42:19  PAGE 56


  C:162DH         LINE#         2799
  C:1630H         LINE#         2800
  C:1638H         LINE#         2801
  -------         ENDPROC       DE_WEEK
  -------         PROC          SD_MODE
  C:2298H         LINE#         2805
  C:2298H         LINE#         2806
  C:2298H         LINE#         2807
  C:22A1H         LINE#         2808
  C:22A1H         LINE#         2809
  C:22A6H         LINE#         2811
  C:22AFH         LINE#         2812
  C:22AFH         LINE#         2813
  C:22B3H         LINE#         2815
  C:22B9H         LINE#         2816
  C:22C0H         LINE#         2817
  C:22C0H         LINE#         2818
  C:22C6H         LINE#         2819
  C:22CBH         LINE#         2820
  C:22CBH         LINE#         2821
  C:22D6H         LINE#         2822
  C:22E3H         LINE#         2823
  C:22E3H         LINE#         2824
  C:22E3H         LINE#         2825
  C:22E3H         LINE#         2826
  C:22F0H         LINE#         2827
  C:22FDH         LINE#         2828
  C:230AH         LINE#         2829
  C:2317H         LINE#         2830
  C:232EH         LINE#         2836
  C:2330H         LINE#         2837
  C:2332H         LINE#         2839
  C:2332H         LINE#         2840
  C:2332H         LINE#         2841
  C:2332H         LINE#         2842
  C:233FH         LINE#         2843
  C:234CH         LINE#         2844
  C:2359H         LINE#         2845
  C:2366H         LINE#         2846
  C:237DH         LINE#         2848
  C:237FH         LINE#         2849
  C:237FH         LINE#         2850
  C:237FH         LINE#         2851
  C:237FH         LINE#         2852
  C:237FH         LINE#         2854
  C:237FH         LINE#         2855
  C:237FH         LINE#         2857
  C:2384H         LINE#         2859
  C:2387H         LINE#         2860
  C:2387H         LINE#         2861
  C:238BH         LINE#         2862
  C:238DH         LINE#         2863
  C:238DH         LINE#         2864
  C:238DH         LINE#         2865
  C:2390H         LINE#         2866
  C:2390H         LINE#         2867
  C:2395H         LINE#         2868
BL51 BANKED LINKER/LOCATER V6.22                                                      07/26/2018  17:42:19  PAGE 57


  C:2397H         LINE#         2869
  C:2397H         LINE#         2870
  C:23A6H         LINE#         2871
  C:23A6H         LINE#         2873
  C:23ACH         LINE#         2875
  C:23B1H         LINE#         2876
  C:23B3H         LINE#         2877
  C:23B7H         LINE#         2878
  C:23BBH         LINE#         2880
  C:23C0H         LINE#         2881
  C:23C2H         LINE#         2882
  C:23C2H         LINE#         2883
  C:23C5H         LINE#         2884
  C:23C5H         LINE#         2885
  C:23C8H         LINE#         2886
  C:23C8H         LINE#         2892
  -------         ENDPROC       SD_MODE
  -------         PROC          VOICE_CONTROL
  C:3713H         LINE#         2895
  C:3713H         LINE#         2896
  C:3713H         LINE#         2899
  C:3719H         LINE#         2900
  C:3719H         LINE#         2901
  C:371FH         LINE#         2902
  C:3722H         LINE#         2903
  C:3722H         LINE#         2904
  C:3723H         LINE#         2905
  C:3726H         LINE#         2906
  C:3726H         LINE#         2909
  C:3729H         LINE#         2910
  C:3737H         LINE#         2911
  C:3737H         LINE#         2912
  C:373DH         LINE#         2913
  C:3741H         LINE#         2914
  C:3747H         LINE#         2915
  C:3751H         LINE#         2916
  C:3754H         LINE#         2917
  C:3754H         LINE#         2919
  C:3754H         LINE#         2921
  C:3756H         LINE#         2924
  C:3756H         LINE#         2925
  C:375BH         LINE#         2926
  C:375FH         LINE#         2927
  C:3765H         LINE#         2928
  C:376FH         LINE#         2930
  C:376FH         LINE#         2931
  C:376FH         LINE#         2932
  C:377DH         LINE#         2933
  C:377DH         LINE#         2935
  C:3783H         LINE#         2936
  C:3789H         LINE#         2937
  C:3789H         LINE#         2939
  C:378EH         LINE#         2940
  C:3792H         LINE#         2941
  C:3792H         LINE#         2943
  C:379AH         LINE#         2944
  C:379AH         LINE#         2945
BL51 BANKED LINKER/LOCATER V6.22                                                      07/26/2018  17:42:19  PAGE 58


  C:379BH         LINE#         2946
  C:379FH         LINE#         2947
  C:37A4H         LINE#         2949
  C:37A9H         LINE#         2950
  C:37ADH         LINE#         2951
  C:37B3H         LINE#         2952
  C:37BDH         LINE#         2955
  C:37C2H         LINE#         2956
  C:37C7H         LINE#         2958
  C:37C7H         LINE#         2959
  C:37C7H         LINE#         2961
  -------         ENDPROC       VOICE_CONTROL
  -------         PROC          INITDS1302
  -------         DO            
  X:0001H         SYMBOL        year
  X:0002H         SYMBOL        month
  X:0003H         SYMBOL        mday
  X:0004H         SYMBOL        week
  X:0005H         SYMBOL        hour
  X:0006H         SYMBOL        minute
  X:0007H         SYMBOL        second
  -------         ENDDO         
  C:326FH         LINE#         2965
  C:326FH         LINE#         2966
  C:326FH         LINE#         2968
  C:3279H         LINE#         2969
  C:3281H         LINE#         2970
  C:3289H         LINE#         2971
  C:3291H         LINE#         2972
  C:3299H         LINE#         2973
  C:32A1H         LINE#         2974
  C:32A9H         LINE#         2976
  C:32B0H         LINE#         2977
  C:32B3H         LINE#         2978
  C:32B9H         LINE#         2979
  C:32BEH         LINE#         2980
  C:32C1H         LINE#         2985
  C:32C4H         LINE#         2986
  C:32C9H         LINE#         2987
  C:32CEH         LINE#         2989
  C:32D1H         LINE#         2990
  C:32D6H         LINE#         2992
  C:32DEH         LINE#         2993
  C:32E6H         LINE#         2994
  C:32EEH         LINE#         2995
  C:32F6H         LINE#         2996
  C:32FEH         LINE#         2997
  C:3306H         LINE#         2998
  C:330EH         LINE#         2999
  C:3313H         LINE#         3000
  C:3316H         LINE#         3001
  C:3319H         LINE#         3003
  C:3322H         LINE#         3004
  C:3331H         LINE#         3005
  C:3333H         LINE#         3006
  C:3338H         LINE#         3011
  -------         ENDPROC       INITDS1302
BL51 BANKED LINKER/LOCATER V6.22                                                      07/26/2018  17:42:19  PAGE 59


  -------         PROC          BRIGHT_CONTRL
  -------         DO            
  X:0001H         SYMBOL        hour
  -------         ENDDO         
  C:2A43H         LINE#         3014
  C:2A43H         LINE#         3015
  C:2A43H         LINE#         3018
  C:2A46H         LINE#         3019
  C:2A4BH         LINE#         3020
  C:2A53H         LINE#         3024
  C:2A5CH         LINE#         3025
  C:2A5CH         LINE#         3026
  C:2A66H         LINE#         3027
  C:2A6EH         LINE#         3028
  C:2A73H         LINE#         3029
  C:2A79H         LINE#         3030
  C:2A79H         LINE#         3031
  C:2A8DH         LINE#         3032
  C:2A8DH         LINE#         3033
  C:2A93H         LINE#         3034
  C:2A97H         LINE#         3035
  C:2A9DH         LINE#         3036
  C:2AA7H         LINE#         3037
  C:2AA7H         LINE#         3038
  C:2ABDH         LINE#         3039
  C:2ABDH         LINE#         3040
  C:2ABDH         LINE#         3041
  C:2ABDH         LINE#         3042
  C:2ABDH         LINE#         3043
  C:2ABDH         LINE#         3044
  C:2ABDH         LINE#         3045
  C:2ABFH         LINE#         3047
  C:2ABFH         LINE#         3048
  C:2ACFH         LINE#         3049
  C:2ACFH         LINE#         3050
  C:2AD5H         LINE#         3051
  C:2AD9H         LINE#         3052
  C:2ADFH         LINE#         3053
  C:2AE9H         LINE#         3054
  C:2AE9H         LINE#         3055
  C:2AFEH         LINE#         3056
  C:2AFEH         LINE#         3057
  C:2AFEH         LINE#         3058
  C:2AFEH         LINE#         3059
  C:2AFEH         LINE#         3060
  C:2AFEH         LINE#         3061
  C:2AFEH         LINE#         3062
  C:2AFEH         LINE#         3063
  C:2B00H         LINE#         3065
  C:2B00H         LINE#         3066
  C:2B0AH         LINE#         3067
  C:2B14H         LINE#         3068
  C:2B14H         LINE#         3069
  C:2B1AH         LINE#         3070
  C:2B1EH         LINE#         3071
  C:2B23H         LINE#         3072
  C:2B23H         LINE#         3073
BL51 BANKED LINKER/LOCATER V6.22                                                      07/26/2018  17:42:19  PAGE 60


  C:2B25H         LINE#         3075
  C:2B25H         LINE#         3076
  C:2B2BH         LINE#         3077
  C:2B2FH         LINE#         3078
  C:2B35H         LINE#         3079
  C:2B3FH         LINE#         3080
  C:2B3FH         LINE#         3082
  C:2B3FH         LINE#         3084
  -------         ENDPROC       BRIGHT_CONTRL
  -------         PROC          DISPLAY_INIT
  -------         DO            
  X:0000H         SYMBOL        i
  D:0007H         SYMBOL        loop
  -------         ENDDO         
  C:1BFAH         LINE#         3087
  C:1BFAH         LINE#         3088
  C:1BFAH         LINE#         3091
  C:1BFFH         LINE#         3092
  C:1C11H         LINE#         3093
  C:1C11H         LINE#         3095
  C:1C28H         LINE#         3096
  C:1C42H         LINE#         3097
  C:1C5CH         LINE#         3098
  C:1C76H         LINE#         3099
  C:1C90H         LINE#         3100
  C:1CAAH         LINE#         3101
  C:1CC4H         LINE#         3102
  C:1CDEH         LINE#         3103
  C:1CF8H         LINE#         3104
  C:1D12H         LINE#         3105
  C:1D2CH         LINE#         3106
  C:1D46H         LINE#         3108
  C:1D5CH         LINE#         3109
  C:1D72H         LINE#         3110
  C:1D88H         LINE#         3111
  C:1D9EH         LINE#         3112
  C:1DA1H         LINE#         3113
  C:1DB8H         LINE#         3114
  C:1DBDH         LINE#         3115
  C:1DC6H         LINE#         3116
  C:1DC8H         LINE#         3117
  C:1DD4H         LINE#         3118
  C:1DD9H         LINE#         3119
  C:1DE8H         LINE#         3120
  C:1DE8H         LINE#         3121
  C:1DF4H         LINE#         3122
  C:1DFCH         LINE#         3123
  C:1DFFH         LINE#         3124
  C:1E16H         LINE#         3125
  C:1E26H         LINE#         3126
  C:1E26H         LINE#         3127
  C:1E29H         LINE#         3128
  C:1E2CH         LINE#         3129
  C:1E31H         LINE#         3130
  C:1E39H         LINE#         3131
  C:1E3BH         LINE#         3132
  C:1E40H         LINE#         3133
BL51 BANKED LINKER/LOCATER V6.22                                                      07/26/2018  17:42:19  PAGE 61


  C:1E42H         LINE#         3134
  C:1E44H         LINE#         3136
  -------         ENDPROC       DISPLAY_INIT
  -------         PROC          POWER_DETECT
  C:448AH         LINE#         3138
  C:448AH         LINE#         3139
  C:448AH         LINE#         3141
  C:4490H         LINE#         3142
  C:4493H         LINE#         3143
  C:4493H         LINE#         3144
  C:4499H         LINE#         3145
  C:4499H         LINE#         3146
  C:449DH         LINE#         3147
  C:44A2H         LINE#         3148
  C:44A2H         LINE#         3150
  C:44ABH         LINE#         3151
  C:44ABH         LINE#         3152
  C:44ADH         LINE#         3153
  C:44B3H         LINE#         3154
  C:44B8H         LINE#         3155
  C:44BCH         LINE#         3156
  C:44C0H         LINE#         3157
  C:44C4H         LINE#         3158
  C:44C4H         LINE#         3159
  C:44C5H         LINE#         3161
  C:44C5H         LINE#         3162
  C:44CAH         LINE#         3163
  C:44CAH         LINE#         3165
  -------         ENDPROC       POWER_DETECT
  -------         PROC          _HOUR_CHAGE_INPUT
  X:0000H         SYMBOL        i
  -------         DO            
  X:0001H         SYMBOL        hour_state_value
  -------         ENDDO         
  C:3339H         LINE#         3168
  C:333EH         LINE#         3169
  C:333EH         LINE#         3171
  C:3341H         LINE#         3172
  C:3346H         LINE#         3173
  C:334EH         LINE#         3174
  C:3356H         LINE#         3175
  C:3356H         LINE#         3178
  C:335EH         LINE#         3179
  C:3363H         LINE#         3180
  C:3363H         LINE#         3181
  C:3367H         LINE#         3182
  C:336EH         LINE#         3183
  C:3371H         LINE#         3184
  C:3374H         LINE#         3185
  C:337AH         LINE#         3186
  C:337CH         LINE#         3187
  C:3384H         LINE#         3188
  C:3384H         LINE#         3189
  C:338AH         LINE#         3190
  C:3392H         LINE#         3191
  C:3394H         LINE#         3192
  C:3394H         LINE#         3193
BL51 BANKED LINKER/LOCATER V6.22                                                      07/26/2018  17:42:19  PAGE 62


  C:3396H         LINE#         3194
  C:33A0H         LINE#         3195
  C:33A0H         LINE#         3196
  C:33A5H         LINE#         3197
  C:33A8H         LINE#         3198
  C:33A8H         LINE#         3201
  C:33A8H         LINE#         3202
  C:33AEH         LINE#         3203
  C:33AEH         LINE#         3205
  C:33B3H         LINE#         3206
  C:33B3H         LINE#         3207
  C:33B6H         LINE#         3208
  C:33BAH         LINE#         3209
  C:33BFH         LINE#         3210
  C:33C7H         LINE#         3211
  C:33CBH         LINE#         3212
  C:33CFH         LINE#         3213
  C:33CFH         LINE#         3214
  C:33D1H         LINE#         3216
  C:33D1H         LINE#         3217
  C:33D9H         LINE#         3218
  C:33DEH         LINE#         3219
  C:33E3H         LINE#         3220
  C:33EDH         LINE#         3222
  C:33EDH         LINE#         3225
  C:33EDH         LINE#         3226
  C:33F0H         LINE#         3227
  C:33F3H         LINE#         3228
  C:33F8H         LINE#         3229
  C:3400H         LINE#         3230
  -------         ENDPROC       _HOUR_CHAGE_INPUT
  -------         PROC          HOUR_MIN_DISPLAY
  C:37C8H         LINE#         3234
  C:37C8H         LINE#         3235
  C:37C8H         LINE#         3236
  C:37E2H         LINE#         3237
  C:37FEH         LINE#         3238
  C:3818H         LINE#         3239
  C:3834H         LINE#         3241
  C:3837H         LINE#         3242
  C:3837H         LINE#         3243
  C:383AH         LINE#         3244
  C:383AH         LINE#         3245
  C:383CH         LINE#         3246
  C:3843H         LINE#         3248
  C:3845H         LINE#         3250
  C:3845H         LINE#         3251
  C:3847H         LINE#         3252
  C:384EH         LINE#         3254
  C:384EH         LINE#         3255
  C:385BH         LINE#         3256
  C:3874H         LINE#         3257
  C:3877H         LINE#         3258
  C:3879H         LINE#         3259
  C:3879H         LINE#         3260
  -------         ENDPROC       HOUR_MIN_DISPLAY
  -------         PROC          FROM_DS1302_READ_TIME_DATA
BL51 BANKED LINKER/LOCATER V6.22                                                      07/26/2018  17:42:19  PAGE 63


  C:3CE3H         LINE#         3262
  C:3CE3H         LINE#         3263
  C:3CE3H         LINE#         3265
  C:3CE6H         LINE#         3266
  C:3CEBH         LINE#         3267
  C:3CF3H         LINE#         3268
  C:3CFBH         LINE#         3269
  C:3D03H         LINE#         3270
  C:3D0BH         LINE#         3271
  C:3D13H         LINE#         3272
  C:3D1BH         LINE#         3273
  C:3D23H         LINE#         3274
  C:3D26H         LINE#         3275
  C:3D2EH         LINE#         3276
  C:3D2EH         LINE#         3277
  C:3D39H         LINE#         3278
  C:3D39H         LINE#         3279
  C:3D3FH         LINE#         3280
  C:3D41H         LINE#         3282
  C:3D41H         LINE#         3283
  C:3D46H         LINE#         3284
  C:3D46H         LINE#         3285
  C:3D50H         LINE#         3286
  C:3D57H         LINE#         3288
  C:3D57H         LINE#         3289
  C:3D5FH         LINE#         3290
  C:3D5FH         LINE#         3291
  C:3D5FH         LINE#         3292
  C:3D62H         LINE#         3293
  C:3D62H         LINE#         3294
  C:3D62H         LINE#         3295
  C:3D67H         LINE#         3296
  -------         ENDPROC       FROM_DS1302_READ_TIME_DATA
  -------         PROC          L?0577
  -------         ENDPROC       L?0577
  -------         PROC          MON_OVER_JUDGE
  C:423DH         LINE#         3300
  C:423DH         LINE#         3301
  C:423DH         LINE#         3302
  C:4249H         LINE#         3303
  C:4252H         LINE#         3304
  C:4269H         LINE#         3305
  C:427EH         LINE#         3306
  C:4285H         LINE#         3307
  C:429AH         LINE#         3308
  -------         ENDPROC       MON_OVER_JUDGE
  -------         PROC          L?0578
  -------         ENDPROC       L?0578
  -------         PROC          MDAY_OVER_JUDGE
  -------         DO            
  D:0004H         SYMBOL        year1
  -------         ENDDO         
  C:2946H         LINE#         3310
  C:2946H         LINE#         3311
  C:2946H         LINE#         3313
  C:2954H         LINE#         3314
  C:2961H         LINE#         3317
BL51 BANKED LINKER/LOCATER V6.22                                                      07/26/2018  17:42:19  PAGE 64


  C:2987H         LINE#         3318
  C:2987H         LINE#         3319
  C:2991H         LINE#         3320
  C:299AH         LINE#         3322
  C:299AH         LINE#         3323
  C:29B1H         LINE#         3324
  C:29B1H         LINE#         3325
  C:29BBH         LINE#         3326
  C:29C4H         LINE#         3327
  C:29C4H         LINE#         3329
  C:29CCH         LINE#         3330
  C:29CCH         LINE#         3331
  C:29EAH         LINE#         3332
  C:2A07H         LINE#         3333
  C:2A25H         LINE#         3334
  C:2A42H         LINE#         3335
  C:2A42H         LINE#         3336
  -------         ENDPROC       MDAY_OVER_JUDGE
  -------         PROC          _ALARM_12SWITCH24
  D:0001H         SYMBOL        alarm
  C:4702H         LINE#         3339
  C:4702H         LINE#         3340
  C:4702H         LINE#         3341
  C:470AH         LINE#         3342
  C:470AH         LINE#         3343
  C:4716H         LINE#         3344
  C:471DH         LINE#         3345
  C:471DH         LINE#         3346
  C:4727H         LINE#         3347
  -------         ENDPROC       _ALARM_12SWITCH24
  -------         PROC          _ALARM_24SWITCH12
  D:0001H         SYMBOL        alarm
  C:4542H         LINE#         3349
  C:4542H         LINE#         3350
  C:4542H         LINE#         3351
  C:454AH         LINE#         3352
  C:454AH         LINE#         3353
  C:454FH         LINE#         3354
  C:4557H         LINE#         3355
  C:4557H         LINE#         3356
  C:4566H         LINE#         3357
  C:4575H         LINE#         3358
  -------         ENDPROC       _ALARM_24SWITCH12
  -------         PROC          L?0575
  -------         ENDPROC       L?0575
  -------         PROC          _HOUR_OVER_JUDGE
  X:0001H         SYMBOL        add_redue_flag
  C:3A87H         LINE#         3360
  C:3A8CH         LINE#         3361
  C:3A8CH         LINE#         3362
  C:3A92H         LINE#         3363
  C:3A92H         LINE#         3365
  C:3A9CH         LINE#         3366
  C:3A9CH         LINE#         3367
  C:3A9CH         LINE#         3368
  C:3A9CH         LINE#         3369
  C:3AA6H         LINE#         3370
BL51 BANKED LINKER/LOCATER V6.22                                                      07/26/2018  17:42:19  PAGE 65


  C:3AB2H         LINE#         3371
  C:3AB4H         LINE#         3372
  C:3AB4H         LINE#         3373
  C:3AB4H         LINE#         3374
  C:3AB4H         LINE#         3375
  C:3ABEH         LINE#         3376
  C:3AC7H         LINE#         3377
  C:3AC9H         LINE#         3378
  C:3AC9H         LINE#         3379
  C:3AC9H         LINE#         3380
  C:3AC9H         LINE#         3382
  C:3AC9H         LINE#         3383
  C:3AD3H         LINE#         3384
  C:3AD3H         LINE#         3385
  C:3AD3H         LINE#         3386
  C:3AD3H         LINE#         3387
  C:3ADEH         LINE#         3388
  C:3AE0H         LINE#         3389
  C:3AE0H         LINE#         3390
  C:3AE0H         LINE#         3391
  C:3AE0H         LINE#         3392
  C:3AEAH         LINE#         3393
  C:3AEAH         LINE#         3394
  C:3AEAH         LINE#         3395
  C:3AEAH         LINE#         3397
  C:3AEAH         LINE#         3399
  C:3AF4H         LINE#         3400
  C:3AFAH         LINE#         3401
  C:3AFAH         LINE#         3402
  C:3B01H         LINE#         3403
  C:3B10H         LINE#         3404
  C:3B14H         LINE#         3405
  C:3B16H         LINE#         3406
  C:3B1DH         LINE#         3407
  -------         ENDPROC       _HOUR_OVER_JUDGE
  -------         PROC          L?0576
  -------         ENDPROC       L?0576
  -------         PROC          _MIN_OVER_JUDGE
  D:0007H         SYMBOL        add_redue_flag
  C:44D3H         LINE#         3411
  C:44D3H         LINE#         3412
  C:44D3H         LINE#         3413
  C:44DAH         LINE#         3414
  C:44DAH         LINE#         3415
  C:44DAH         LINE#         3416
  C:44DAH         LINE#         3417
  C:44E5H         LINE#         3418
  C:44E7H         LINE#         3419
  C:44E7H         LINE#         3420
  C:44E7H         LINE#         3421
  C:44E7H         LINE#         3422
  C:44F1H         LINE#         3423
  C:44F1H         LINE#         3424
  C:44F1H         LINE#         3425
  C:44F1H         LINE#         3426
  C:44F8H         LINE#         3427
  C:4503H         LINE#         3428
BL51 BANKED LINKER/LOCATER V6.22                                                      07/26/2018  17:42:19  PAGE 66


  -------         ENDPROC       _MIN_OVER_JUDGE
  -------         PROC          _ALARM_ON_OFF_SET
  X:0000H         SYMBOL        alarm_num
  X:0001H         SYMBOL        alarm
  C:261FH         LINE#         3431
  C:262DH         LINE#         3432
  C:262DH         LINE#         3433
  C:2636H         LINE#         3434
  C:263FH         LINE#         3435
  C:2652H         LINE#         3436
  C:266AH         LINE#         3437
  C:2670H         LINE#         3438
  C:2670H         LINE#         3439
  C:2673H         LINE#         3440
  C:2673H         LINE#         3441
  C:2686H         LINE#         3442
  C:2686H         LINE#         3445
  C:268DH         LINE#         3446
  C:2696H         LINE#         3447
  C:269FH         LINE#         3448
  C:26A3H         LINE#         3450
  C:26A5H         LINE#         3452
  C:26A5H         LINE#         3453
  C:26ADH         LINE#         3454
  C:26B6H         LINE#         3455
  C:26BFH         LINE#         3456
  C:26C7H         LINE#         3457
  C:26C7H         LINE#         3459
  C:26C9H         LINE#         3463
  C:26CBH         LINE#         3465
  C:26CBH         LINE#         3466
  C:26D3H         LINE#         3467
  C:26DBH         LINE#         3468
  C:26E3H         LINE#         3469
  C:26EBH         LINE#         3470
  C:26EDH         LINE#         3472
  C:26EDH         LINE#         3474
  C:26EFH         LINE#         3475
  C:26EFH         LINE#         3476
  C:2709H         LINE#         3477
  C:270CH         LINE#         3478
  C:2713H         LINE#         3479
  C:2713H         LINE#         3480
  C:272CH         LINE#         3481
  C:2731H         LINE#         3482
  C:2736H         LINE#         3483
  C:2736H         LINE#         3485
  -------         ENDPROC       _ALARM_ON_OFF_SET
  -------         PROC          _ALARM_HOUR_BLINK
  X:0003H         SYMBOL        blink_enable
  X:0004H         SYMBOL        alarm
  C:2B40H         LINE#         3487
  C:2B4EH         LINE#         3488
  C:2B4EH         LINE#         3489
  C:2B6AH         LINE#         3490
  C:2B93H         LINE#         3491
  C:2B99H         LINE#         3492
BL51 BANKED LINKER/LOCATER V6.22                                                      07/26/2018  17:42:19  PAGE 67


  C:2B99H         LINE#         3493
  C:2B9CH         LINE#         3494
  C:2B9CH         LINE#         3495
  C:2BC0H         LINE#         3496
  C:2BE6H         LINE#         3497
  C:2BEEH         LINE#         3500
  C:2BF0H         LINE#         3502
  C:2BF0H         LINE#         3503
  C:2BF2H         LINE#         3504
  C:2BFAH         LINE#         3505
  C:2C02H         LINE#         3506
  C:2C02H         LINE#         3507
  C:2C1CH         LINE#         3508
  C:2C2BH         LINE#         3509
  C:2C32H         LINE#         3510
  C:2C35H         LINE#         3511
  C:2C37H         LINE#         3512
  C:2C37H         LINE#         3513
  -------         ENDPROC       _ALARM_HOUR_BLINK
  -------         PROC          _ALARM_HOUR_SET
  X:0000H         SYMBOL        alarm
  C:429BH         LINE#         3514
  C:42A6H         LINE#         3515
  C:42A6H         LINE#         3516
  C:42ABH         LINE#         3517
  C:42B2H         LINE#         3518
  C:42B2H         LINE#         3519
  C:42C2H         LINE#         3520
  C:42CDH         LINE#         3522
  C:42D2H         LINE#         3523
  C:42D2H         LINE#         3524
  C:42D9H         LINE#         3525
  C:42D9H         LINE#         3526
  C:42DBH         LINE#         3527
  C:42EBH         LINE#         3528
  C:42F7H         LINE#         3529
  C:42F7H         LINE#         3531
  -------         ENDPROC       _ALARM_HOUR_SET
  -------         PROC          _ALARM_HOUR_UP_DOWN
  D:0007H         SYMBOL        long_key_enble
  D:0005H         SYMBOL        up_down_seclect
  X:0003H         SYMBOL        alarm
  C:1FCFH         LINE#         3533
  C:1FDAH         LINE#         3534
  C:1FDAH         LINE#         3535
  C:1FDDH         LINE#         3536
  C:1FDDH         LINE#         3537
  C:1FF0H         LINE#         3538
  C:1FF6H         LINE#         3539
  C:1FF6H         LINE#         3540
  C:200EH         LINE#         3541
  C:2020H         LINE#         3542
  C:2020H         LINE#         3543
  C:202EH         LINE#         3544
  C:2033H         LINE#         3545
  C:2033H         LINE#         3546
  C:2035H         LINE#         3548
BL51 BANKED LINKER/LOCATER V6.22                                                      07/26/2018  17:42:19  PAGE 68


  C:2035H         LINE#         3549
  C:204CH         LINE#         3550
  C:204CH         LINE#         3551
  C:204CH         LINE#         3552
  C:2051H         LINE#         3553
  C:2051H         LINE#         3554
  C:2064H         LINE#         3555
  C:206AH         LINE#         3556
  C:206AH         LINE#         3557
  C:207FH         LINE#         3558
  C:2091H         LINE#         3559
  C:2091H         LINE#         3560
  C:209FH         LINE#         3561
  C:20A4H         LINE#         3562
  C:20A4H         LINE#         3563
  C:20A6H         LINE#         3565
  C:20A6H         LINE#         3566
  C:20BEH         LINE#         3567
  C:20BEH         LINE#         3568
  C:20BEH         LINE#         3571
  C:20C4H         LINE#         3572
  C:20C4H         LINE#         3573
  C:20E8H         LINE#         3574
  C:210EH         LINE#         3575
  C:2128H         LINE#         3576
  C:2137H         LINE#         3577
  C:213EH         LINE#         3578
  C:2141H         LINE#         3579
  C:2146H         LINE#         3580
  C:214BH         LINE#         3581
  C:214BH         LINE#         3582
  -------         ENDPROC       _ALARM_HOUR_UP_DOWN
  -------         PROC          _ALARM_MIN_BLINK
  X:0003H         SYMBOL        blink_enable
  X:0004H         SYMBOL        alarm
  C:2C38H         LINE#         3585
  C:2C46H         LINE#         3586
  C:2C46H         LINE#         3587
  C:2C5FH         LINE#         3588
  C:2C85H         LINE#         3589
  C:2C8BH         LINE#         3590
  C:2C8BH         LINE#         3591
  C:2C8EH         LINE#         3592
  C:2C8EH         LINE#         3593
  C:2C96H         LINE#         3594
  C:2CBDH         LINE#         3595
  C:2CE1H         LINE#         3596
  C:2CE3H         LINE#         3598
  C:2CE3H         LINE#         3599
  C:2CE5H         LINE#         3600
  C:2CEDH         LINE#         3601
  C:2CF5H         LINE#         3603
  C:2CF5H         LINE#         3605
  C:2D0FH         LINE#         3606
  C:2D1EH         LINE#         3607
  C:2D25H         LINE#         3608
  C:2D28H         LINE#         3609
BL51 BANKED LINKER/LOCATER V6.22                                                      07/26/2018  17:42:19  PAGE 69


  C:2D2AH         LINE#         3611
  C:2D2AH         LINE#         3612
  -------         ENDPROC       _ALARM_MIN_BLINK
  -------         PROC          _ALARM_MIN_SET
  X:0000H         SYMBOL        alarm
  C:42F8H         LINE#         3613
  C:4303H         LINE#         3614
  C:4303H         LINE#         3615
  C:4308H         LINE#         3616
  C:430FH         LINE#         3617
  C:430FH         LINE#         3618
  C:4322H         LINE#         3619
  C:4328H         LINE#         3620
  C:432DH         LINE#         3621
  C:432DH         LINE#         3622
  C:4334H         LINE#         3623
  C:4334H         LINE#         3624
  C:4347H         LINE#         3625
  C:434EH         LINE#         3626
  C:4353H         LINE#         3627
  C:4353H         LINE#         3628
  -------         ENDPROC       _ALARM_MIN_SET
  -------         PROC          _ALARM_MIN_UP_DOWN
  D:0007H         SYMBOL        long_key_enble
  D:0005H         SYMBOL        up_down_seclect
  X:0003H         SYMBOL        alarm
  C:2737H         LINE#         3629
  C:2742H         LINE#         3630
  C:2742H         LINE#         3631
  C:2745H         LINE#         3632
  C:2745H         LINE#         3633
  C:275BH         LINE#         3634
  C:2775H         LINE#         3635
  C:2777H         LINE#         3637
  C:2777H         LINE#         3638
  C:278DH         LINE#         3639
  C:27A9H         LINE#         3640
  C:27A9H         LINE#         3643
  C:27AFH         LINE#         3644
  C:27AFH         LINE#         3645
  C:27D6H         LINE#         3646
  C:27FFH         LINE#         3647
  C:2819H         LINE#         3648
  C:2828H         LINE#         3649
  C:282FH         LINE#         3650
  C:2832H         LINE#         3651
  C:2837H         LINE#         3652
  C:283CH         LINE#         3653
  C:283CH         LINE#         3654
  -------         ENDPROC       _ALARM_MIN_UP_DOWN
  -------         PROC          _KEY_OFF_ALARM_CLOCK
  D:0001H         SYMBOL        alarm
  C:476EH         LINE#         3657
  C:476EH         LINE#         3658
  C:476EH         LINE#         3659
  C:4777H         LINE#         3660
  C:4777H         LINE#         3661
BL51 BANKED LINKER/LOCATER V6.22                                                      07/26/2018  17:42:19  PAGE 70


  C:4780H         LINE#         3662
  C:4780H         LINE#         3663
  C:4787H         LINE#         3664
  C:4789H         LINE#         3665
  C:478BH         LINE#         3666
  C:478DH         LINE#         3667
  C:478DH         LINE#         3668
  C:478DH         LINE#         3669
  -------         ENDPROC       _KEY_OFF_ALARM_CLOCK
  -------         ENDMOD        USR

  -------         MODULE        ?C?FPADD
  C:0075H         PUBLIC        ?C?FPADD
  C:0071H         PUBLIC        ?C?FPSUB
  -------         ENDMOD        ?C?FPADD

  -------         MODULE        ?C?FPMUL
  C:0166H         PUBLIC        ?C?FPMUL
  -------         ENDMOD        ?C?FPMUL

  -------         MODULE        ?C?FPDIV
  C:026FH         PUBLIC        ?C?FPDIV
  -------         ENDMOD        ?C?FPDIV

  -------         MODULE        ?C?FCAST
  C:0316H         PUBLIC        ?C?FCASTC
  C:0311H         PUBLIC        ?C?FCASTI
  C:030CH         PUBLIC        ?C?FCASTL
  -------         ENDMOD        ?C?FCAST

  -------         MODULE        ?C?CASTF
  C:034AH         PUBLIC        ?C?CASTF
  -------         ENDMOD        ?C?CASTF

  -------         MODULE        LOG
  C:252AH         PUBLIC        _LOG
  C:2526H         PUBLIC        _LOG10
  -------         ENDMOD        LOG

  -------         MODULE        VSPRINTF
  X:012BH         PUBLIC        ?_VSPRINTF?BYTE
  C:43FFH         PUBLIC        _VSPRINTF
  -------         ENDMOD        VSPRINTF

  -------         MODULE        PRINTF
  X:0134H         PUBLIC        ?_PRINTF?BYTE
  X:0134H         PUBLIC        ?_SPRINTF?BYTE
  C:0E6DH         PUBLIC        _PRINTF
  C:0E67H         PUBLIC        _SPRINTF
  -------         ENDMOD        PRINTF

  -------         MODULE        ?C?FPROUND
  C:0418H         PUBLIC        ?C?FPROUND
  -------         ENDMOD        ?C?FPROUND

  -------         MODULE        ?C?FPCONVERT
  C:0455H         PUBLIC        ?C?FPCONVERT
BL51 BANKED LINKER/LOCATER V6.22                                                      07/26/2018  17:42:19  PAGE 71


  -------         ENDMOD        ?C?FPCONVERT

  -------         MODULE        ?C?FTNPWR
  C:058AH         PUBLIC        ?C?FTNPWR
  -------         ENDMOD        ?C?FTNPWR

  -------         MODULE        ?C?CLDPTR
  C:05CAH         PUBLIC        ?C?CLDPTR
  -------         ENDMOD        ?C?CLDPTR

  -------         MODULE        ?C?CLDOPTR
  C:05E3H         PUBLIC        ?C?CLDOPTR
  -------         ENDMOD        ?C?CLDOPTR

  -------         MODULE        ?C?CILDPTR
  C:0610H         PUBLIC        ?C?CILDPTR
  -------         ENDMOD        ?C?CILDPTR

  -------         MODULE        ?C?CILDOPTR
  C:0632H         PUBLIC        ?C?CILDOPTR
  -------         ENDMOD        ?C?CILDOPTR

  -------         MODULE        ?C?CSTPTR
  C:0665H         PUBLIC        ?C?CSTPTR
  -------         ENDMOD        ?C?CSTPTR

  -------         MODULE        ?C?CSTOPTR
  C:0677H         PUBLIC        ?C?CSTOPTR
  -------         ENDMOD        ?C?CSTOPTR

  -------         MODULE        ?C?UIDIV
  C:0699H         PUBLIC        ?C?UIDIV
  -------         ENDMOD        ?C?UIDIV

  -------         MODULE        ?C?ILDIX
  C:06EEH         PUBLIC        ?C?ILDIX
  -------         ENDMOD        ?C?ILDIX

  -------         MODULE        ?C?LMUL
  C:0704H         PUBLIC        ?C?LMUL
  -------         ENDMOD        ?C?LMUL

  -------         MODULE        ?C?ULDIV
  C:078FH         PUBLIC        ?C?ULDIV
  -------         ENDMOD        ?C?ULDIV

  -------         MODULE        ?C?LNEG
  C:0821H         PUBLIC        ?C?LNEG
  -------         ENDMOD        ?C?LNEG

  -------         MODULE        ?C?ULCMP
  C:082FH         PUBLIC        ?C?ULCMP
  -------         ENDMOD        ?C?ULCMP

  -------         MODULE        ?C?LLDCODE
  C:0840H         PUBLIC        ?C?LLDCODE
  -------         ENDMOD        ?C?LLDCODE
BL51 BANKED LINKER/LOCATER V6.22                                                      07/26/2018  17:42:19  PAGE 72



  -------         MODULE        ?C?LLDXDATA0
  C:0850H         PUBLIC        ?C?LLDXDATA0
  -------         ENDMOD        ?C?LLDXDATA0

  -------         MODULE        ?C?LLDCODE0
  C:085CH         PUBLIC        ?C?LLDCODE0
  -------         ENDMOD        ?C?LLDCODE0

  -------         MODULE        ?C?LSTXDATA
  C:086CH         PUBLIC        ?C?LSTXDATA
  -------         ENDMOD        ?C?LSTXDATA

  -------         MODULE        ?C?LSTKXDATA
  C:0878H         PUBLIC        ?C?LSTKXDATA
  -------         ENDMOD        ?C?LSTKXDATA

  -------         MODULE        ?C?OFFXADD
  C:08A9H         PUBLIC        ?C?OFFXADD
  -------         ENDMOD        ?C?OFFXADD

  -------         MODULE        ?C?PLDIXDATA
  C:08B5H         PUBLIC        ?C?PLDIXDATA
  -------         ENDMOD        ?C?PLDIXDATA

  -------         MODULE        ?C?PSTXDATA
  C:08CCH         PUBLIC        ?C?PSTXDATA
  -------         ENDMOD        ?C?PSTXDATA

  -------         MODULE        ?C?PLDPTR
  C:08D5H         PUBLIC        ?C?PLDPTR
  -------         ENDMOD        ?C?PLDPTR

  -------         MODULE        ?C?PLDOPTR
  C:08F5H         PUBLIC        ?C?PLDOPTR
  -------         ENDMOD        ?C?PLDOPTR

  -------         MODULE        ?C?CCASE
  C:0925H         PUBLIC        ?C?CCASE
  -------         ENDMOD        ?C?CCASE

  -------         MODULE        ?C?ICALL
  C:094BH         PUBLIC        ?C?ICALL
  C:094FH         PUBLIC        ?C?ICALL2
  -------         ENDMOD        ?C?ICALL

  -------         MODULE        PUTCHAR
  C:46DBH         PUBLIC        _PUTCHAR
  -------         ENDMOD        PUTCHAR

  -------         MODULE        ?C?PLDIDATA
  C:0951H         PUBLIC        ?C?PLDIDATA
  -------         ENDMOD        ?C?PLDIDATA

  -------         MODULE        ?C?PLDXDATA
  C:095AH         PUBLIC        ?C?PLDXDATA
  -------         ENDMOD        ?C?PLDXDATA
BL51 BANKED LINKER/LOCATER V6.22                                                      07/26/2018  17:42:19  PAGE 73



  -------         MODULE        ?C?PLDPDATA
  C:0963H         PUBLIC        ?C?PLDPDATA
  -------         ENDMOD        ?C?PLDPDATA

  -------         MODULE        ?C?PLDCODE
  C:096CH         PUBLIC        ?C?PLDCODE
  -------         ENDMOD        ?C?PLDCODE

Program Size: data=17.0 xdata=903 code=18700
LINK/LOCATE RUN COMPLETE.  0 WARNING(S),  0 ERROR(S)
